
ctarget:     file format elf64-x86-64


Disassembly of section .init:

0000000000400bb0 <_init>:
  400bb0:	48 83 ec 08          	sub    $0x8,%rsp
  400bb4:	48 8b 05 3d 34 20 00 	mov    0x20343d(%rip),%rax        # 603ff8 <_DYNAMIC+0x1d8>
  400bbb:	48 85 c0             	test   %rax,%rax
  400bbe:	74 02                	je     400bc2 <_init+0x12>
  400bc0:	ff d0                	callq  *%rax
  400bc2:	48 83 c4 08          	add    $0x8,%rsp
  400bc6:	c3                   	retq   

Disassembly of section .plt:

0000000000400bd0 <strcasecmp@plt-0x10>:
  400bd0:	ff 35 32 34 20 00    	pushq  0x203432(%rip)        # 604008 <_GLOBAL_OFFSET_TABLE_+0x8>
  400bd6:	ff 25 34 34 20 00    	jmpq   *0x203434(%rip)        # 604010 <_GLOBAL_OFFSET_TABLE_+0x10>
  400bdc:	0f 1f 40 00          	nopl   0x0(%rax)

0000000000400be0 <strcasecmp@plt>:
  400be0:	ff 25 32 34 20 00    	jmpq   *0x203432(%rip)        # 604018 <_GLOBAL_OFFSET_TABLE_+0x18>
  400be6:	68 00 00 00 00       	pushq  $0x0
  400beb:	e9 e0 ff ff ff       	jmpq   400bd0 <_init+0x20>

0000000000400bf0 <__errno_location@plt>:
  400bf0:	ff 25 2a 34 20 00    	jmpq   *0x20342a(%rip)        # 604020 <_GLOBAL_OFFSET_TABLE_+0x20>
  400bf6:	68 01 00 00 00       	pushq  $0x1
  400bfb:	e9 d0 ff ff ff       	jmpq   400bd0 <_init+0x20>

0000000000400c00 <srandom@plt>:
  400c00:	ff 25 22 34 20 00    	jmpq   *0x203422(%rip)        # 604028 <_GLOBAL_OFFSET_TABLE_+0x28>
  400c06:	68 02 00 00 00       	pushq  $0x2
  400c0b:	e9 c0 ff ff ff       	jmpq   400bd0 <_init+0x20>

0000000000400c10 <strncmp@plt>:
  400c10:	ff 25 1a 34 20 00    	jmpq   *0x20341a(%rip)        # 604030 <_GLOBAL_OFFSET_TABLE_+0x30>
  400c16:	68 03 00 00 00       	pushq  $0x3
  400c1b:	e9 b0 ff ff ff       	jmpq   400bd0 <_init+0x20>

0000000000400c20 <strcpy@plt>:
  400c20:	ff 25 12 34 20 00    	jmpq   *0x203412(%rip)        # 604038 <_GLOBAL_OFFSET_TABLE_+0x38>
  400c26:	68 04 00 00 00       	pushq  $0x4
  400c2b:	e9 a0 ff ff ff       	jmpq   400bd0 <_init+0x20>

0000000000400c30 <puts@plt>:
  400c30:	ff 25 0a 34 20 00    	jmpq   *0x20340a(%rip)        # 604040 <_GLOBAL_OFFSET_TABLE_+0x40>
  400c36:	68 05 00 00 00       	pushq  $0x5
  400c3b:	e9 90 ff ff ff       	jmpq   400bd0 <_init+0x20>

0000000000400c40 <write@plt>:
  400c40:	ff 25 02 34 20 00    	jmpq   *0x203402(%rip)        # 604048 <_GLOBAL_OFFSET_TABLE_+0x48>
  400c46:	68 06 00 00 00       	pushq  $0x6
  400c4b:	e9 80 ff ff ff       	jmpq   400bd0 <_init+0x20>

0000000000400c50 <mmap@plt>:
  400c50:	ff 25 fa 33 20 00    	jmpq   *0x2033fa(%rip)        # 604050 <_GLOBAL_OFFSET_TABLE_+0x50>
  400c56:	68 07 00 00 00       	pushq  $0x7
  400c5b:	e9 70 ff ff ff       	jmpq   400bd0 <_init+0x20>

0000000000400c60 <printf@plt>:
  400c60:	ff 25 f2 33 20 00    	jmpq   *0x2033f2(%rip)        # 604058 <_GLOBAL_OFFSET_TABLE_+0x58>
  400c66:	68 08 00 00 00       	pushq  $0x8
  400c6b:	e9 60 ff ff ff       	jmpq   400bd0 <_init+0x20>

0000000000400c70 <memset@plt>:
  400c70:	ff 25 ea 33 20 00    	jmpq   *0x2033ea(%rip)        # 604060 <_GLOBAL_OFFSET_TABLE_+0x60>
  400c76:	68 09 00 00 00       	pushq  $0x9
  400c7b:	e9 50 ff ff ff       	jmpq   400bd0 <_init+0x20>

0000000000400c80 <alarm@plt>:
  400c80:	ff 25 e2 33 20 00    	jmpq   *0x2033e2(%rip)        # 604068 <_GLOBAL_OFFSET_TABLE_+0x68>
  400c86:	68 0a 00 00 00       	pushq  $0xa
  400c8b:	e9 40 ff ff ff       	jmpq   400bd0 <_init+0x20>

0000000000400c90 <close@plt>:
  400c90:	ff 25 da 33 20 00    	jmpq   *0x2033da(%rip)        # 604070 <_GLOBAL_OFFSET_TABLE_+0x70>
  400c96:	68 0b 00 00 00       	pushq  $0xb
  400c9b:	e9 30 ff ff ff       	jmpq   400bd0 <_init+0x20>

0000000000400ca0 <read@plt>:
  400ca0:	ff 25 d2 33 20 00    	jmpq   *0x2033d2(%rip)        # 604078 <_GLOBAL_OFFSET_TABLE_+0x78>
  400ca6:	68 0c 00 00 00       	pushq  $0xc
  400cab:	e9 20 ff ff ff       	jmpq   400bd0 <_init+0x20>

0000000000400cb0 <signal@plt>:
  400cb0:	ff 25 ca 33 20 00    	jmpq   *0x2033ca(%rip)        # 604080 <_GLOBAL_OFFSET_TABLE_+0x80>
  400cb6:	68 0d 00 00 00       	pushq  $0xd
  400cbb:	e9 10 ff ff ff       	jmpq   400bd0 <_init+0x20>

0000000000400cc0 <gethostbyname@plt>:
  400cc0:	ff 25 c2 33 20 00    	jmpq   *0x2033c2(%rip)        # 604088 <_GLOBAL_OFFSET_TABLE_+0x88>
  400cc6:	68 0e 00 00 00       	pushq  $0xe
  400ccb:	e9 00 ff ff ff       	jmpq   400bd0 <_init+0x20>

0000000000400cd0 <fprintf@plt>:
  400cd0:	ff 25 ba 33 20 00    	jmpq   *0x2033ba(%rip)        # 604090 <_GLOBAL_OFFSET_TABLE_+0x90>
  400cd6:	68 0f 00 00 00       	pushq  $0xf
  400cdb:	e9 f0 fe ff ff       	jmpq   400bd0 <_init+0x20>

0000000000400ce0 <strtol@plt>:
  400ce0:	ff 25 b2 33 20 00    	jmpq   *0x2033b2(%rip)        # 604098 <_GLOBAL_OFFSET_TABLE_+0x98>
  400ce6:	68 10 00 00 00       	pushq  $0x10
  400ceb:	e9 e0 fe ff ff       	jmpq   400bd0 <_init+0x20>

0000000000400cf0 <memcpy@plt>:
  400cf0:	ff 25 aa 33 20 00    	jmpq   *0x2033aa(%rip)        # 6040a0 <_GLOBAL_OFFSET_TABLE_+0xa0>
  400cf6:	68 11 00 00 00       	pushq  $0x11
  400cfb:	e9 d0 fe ff ff       	jmpq   400bd0 <_init+0x20>

0000000000400d00 <time@plt>:
  400d00:	ff 25 a2 33 20 00    	jmpq   *0x2033a2(%rip)        # 6040a8 <_GLOBAL_OFFSET_TABLE_+0xa8>
  400d06:	68 12 00 00 00       	pushq  $0x12
  400d0b:	e9 c0 fe ff ff       	jmpq   400bd0 <_init+0x20>

0000000000400d10 <random@plt>:
  400d10:	ff 25 9a 33 20 00    	jmpq   *0x20339a(%rip)        # 6040b0 <_GLOBAL_OFFSET_TABLE_+0xb0>
  400d16:	68 13 00 00 00       	pushq  $0x13
  400d1b:	e9 b0 fe ff ff       	jmpq   400bd0 <_init+0x20>

0000000000400d20 <_IO_getc@plt>:
  400d20:	ff 25 92 33 20 00    	jmpq   *0x203392(%rip)        # 6040b8 <_GLOBAL_OFFSET_TABLE_+0xb8>
  400d26:	68 14 00 00 00       	pushq  $0x14
  400d2b:	e9 a0 fe ff ff       	jmpq   400bd0 <_init+0x20>

0000000000400d30 <__isoc99_sscanf@plt>:
  400d30:	ff 25 8a 33 20 00    	jmpq   *0x20338a(%rip)        # 6040c0 <_GLOBAL_OFFSET_TABLE_+0xc0>
  400d36:	68 15 00 00 00       	pushq  $0x15
  400d3b:	e9 90 fe ff ff       	jmpq   400bd0 <_init+0x20>

0000000000400d40 <munmap@plt>:
  400d40:	ff 25 82 33 20 00    	jmpq   *0x203382(%rip)        # 6040c8 <_GLOBAL_OFFSET_TABLE_+0xc8>
  400d46:	68 16 00 00 00       	pushq  $0x16
  400d4b:	e9 80 fe ff ff       	jmpq   400bd0 <_init+0x20>

0000000000400d50 <bcopy@plt>:
  400d50:	ff 25 7a 33 20 00    	jmpq   *0x20337a(%rip)        # 6040d0 <_GLOBAL_OFFSET_TABLE_+0xd0>
  400d56:	68 17 00 00 00       	pushq  $0x17
  400d5b:	e9 70 fe ff ff       	jmpq   400bd0 <_init+0x20>

0000000000400d60 <fopen@plt>:
  400d60:	ff 25 72 33 20 00    	jmpq   *0x203372(%rip)        # 6040d8 <_GLOBAL_OFFSET_TABLE_+0xd8>
  400d66:	68 18 00 00 00       	pushq  $0x18
  400d6b:	e9 60 fe ff ff       	jmpq   400bd0 <_init+0x20>

0000000000400d70 <getopt@plt>:
  400d70:	ff 25 6a 33 20 00    	jmpq   *0x20336a(%rip)        # 6040e0 <_GLOBAL_OFFSET_TABLE_+0xe0>
  400d76:	68 19 00 00 00       	pushq  $0x19
  400d7b:	e9 50 fe ff ff       	jmpq   400bd0 <_init+0x20>

0000000000400d80 <strtoul@plt>:
  400d80:	ff 25 62 33 20 00    	jmpq   *0x203362(%rip)        # 6040e8 <_GLOBAL_OFFSET_TABLE_+0xe8>
  400d86:	68 1a 00 00 00       	pushq  $0x1a
  400d8b:	e9 40 fe ff ff       	jmpq   400bd0 <_init+0x20>

0000000000400d90 <gethostname@plt>:
  400d90:	ff 25 5a 33 20 00    	jmpq   *0x20335a(%rip)        # 6040f0 <_GLOBAL_OFFSET_TABLE_+0xf0>
  400d96:	68 1b 00 00 00       	pushq  $0x1b
  400d9b:	e9 30 fe ff ff       	jmpq   400bd0 <_init+0x20>

0000000000400da0 <sprintf@plt>:
  400da0:	ff 25 52 33 20 00    	jmpq   *0x203352(%rip)        # 6040f8 <_GLOBAL_OFFSET_TABLE_+0xf8>
  400da6:	68 1c 00 00 00       	pushq  $0x1c
  400dab:	e9 20 fe ff ff       	jmpq   400bd0 <_init+0x20>

0000000000400db0 <exit@plt>:
  400db0:	ff 25 4a 33 20 00    	jmpq   *0x20334a(%rip)        # 604100 <_GLOBAL_OFFSET_TABLE_+0x100>
  400db6:	68 1d 00 00 00       	pushq  $0x1d
  400dbb:	e9 10 fe ff ff       	jmpq   400bd0 <_init+0x20>

0000000000400dc0 <connect@plt>:
  400dc0:	ff 25 42 33 20 00    	jmpq   *0x203342(%rip)        # 604108 <_GLOBAL_OFFSET_TABLE_+0x108>
  400dc6:	68 1e 00 00 00       	pushq  $0x1e
  400dcb:	e9 00 fe ff ff       	jmpq   400bd0 <_init+0x20>

0000000000400dd0 <socket@plt>:
  400dd0:	ff 25 3a 33 20 00    	jmpq   *0x20333a(%rip)        # 604110 <_GLOBAL_OFFSET_TABLE_+0x110>
  400dd6:	68 1f 00 00 00       	pushq  $0x1f
  400ddb:	e9 f0 fd ff ff       	jmpq   400bd0 <_init+0x20>

Disassembly of section .text:

0000000000400de0 <_start>:
  400de0:	31 ed                	xor    %ebp,%ebp
  400de2:	49 89 d1             	mov    %rdx,%r9
  400de5:	5e                   	pop    %rsi
  400de6:	48 89 e2             	mov    %rsp,%rdx
  400de9:	48 83 e4 f0          	and    $0xfffffffffffffff0,%rsp
  400ded:	50                   	push   %rax
  400dee:	54                   	push   %rsp
  400def:	49 c7 c0 30 2d 40 00 	mov    $0x402d30,%r8
  400df6:	48 c7 c1 c0 2c 40 00 	mov    $0x402cc0,%rcx
  400dfd:	48 c7 c7 8d 10 40 00 	mov    $0x40108d,%rdi
  400e04:	ff 15 e6 31 20 00    	callq  *0x2031e6(%rip)        # 603ff0 <_DYNAMIC+0x1d0>
  400e0a:	f4                   	hlt    
  400e0b:	0f 1f 44 00 00       	nopl   0x0(%rax,%rax,1)

0000000000400e10 <deregister_tm_clones>:
  400e10:	b8 97 44 60 00       	mov    $0x604497,%eax
  400e15:	55                   	push   %rbp
  400e16:	48 2d 90 44 60 00    	sub    $0x604490,%rax
  400e1c:	48 83 f8 0e          	cmp    $0xe,%rax
  400e20:	48 89 e5             	mov    %rsp,%rbp
  400e23:	76 1b                	jbe    400e40 <deregister_tm_clones+0x30>
  400e25:	b8 00 00 00 00       	mov    $0x0,%eax
  400e2a:	48 85 c0             	test   %rax,%rax
  400e2d:	74 11                	je     400e40 <deregister_tm_clones+0x30>
  400e2f:	5d                   	pop    %rbp
  400e30:	bf 90 44 60 00       	mov    $0x604490,%edi
  400e35:	ff e0                	jmpq   *%rax
  400e37:	66 0f 1f 84 00 00 00 	nopw   0x0(%rax,%rax,1)
  400e3e:	00 00 
  400e40:	5d                   	pop    %rbp
  400e41:	c3                   	retq   
  400e42:	0f 1f 40 00          	nopl   0x0(%rax)
  400e46:	66 2e 0f 1f 84 00 00 	nopw   %cs:0x0(%rax,%rax,1)
  400e4d:	00 00 00 

0000000000400e50 <register_tm_clones>:
  400e50:	be 90 44 60 00       	mov    $0x604490,%esi
  400e55:	55                   	push   %rbp
  400e56:	48 81 ee 90 44 60 00 	sub    $0x604490,%rsi
  400e5d:	48 c1 fe 03          	sar    $0x3,%rsi
  400e61:	48 89 e5             	mov    %rsp,%rbp
  400e64:	48 89 f0             	mov    %rsi,%rax
  400e67:	48 c1 e8 3f          	shr    $0x3f,%rax
  400e6b:	48 01 c6             	add    %rax,%rsi
  400e6e:	48 d1 fe             	sar    %rsi
  400e71:	74 15                	je     400e88 <register_tm_clones+0x38>
  400e73:	b8 00 00 00 00       	mov    $0x0,%eax
  400e78:	48 85 c0             	test   %rax,%rax
  400e7b:	74 0b                	je     400e88 <register_tm_clones+0x38>
  400e7d:	5d                   	pop    %rbp
  400e7e:	bf 90 44 60 00       	mov    $0x604490,%edi
  400e83:	ff e0                	jmpq   *%rax
  400e85:	0f 1f 00             	nopl   (%rax)
  400e88:	5d                   	pop    %rbp
  400e89:	c3                   	retq   
  400e8a:	66 0f 1f 44 00 00    	nopw   0x0(%rax,%rax,1)

0000000000400e90 <__do_global_dtors_aux>:
  400e90:	80 3d 31 36 20 00 00 	cmpb   $0x0,0x203631(%rip)        # 6044c8 <completed.6963>
  400e97:	75 11                	jne    400eaa <__do_global_dtors_aux+0x1a>
  400e99:	55                   	push   %rbp
  400e9a:	48 89 e5             	mov    %rsp,%rbp
  400e9d:	e8 6e ff ff ff       	callq  400e10 <deregister_tm_clones>
  400ea2:	5d                   	pop    %rbp
  400ea3:	c6 05 1e 36 20 00 01 	movb   $0x1,0x20361e(%rip)        # 6044c8 <completed.6963>
  400eaa:	f3 c3                	repz retq 
  400eac:	0f 1f 40 00          	nopl   0x0(%rax)

0000000000400eb0 <frame_dummy>:
  400eb0:	bf 18 3e 60 00       	mov    $0x603e18,%edi
  400eb5:	48 83 3f 00          	cmpq   $0x0,(%rdi)
  400eb9:	75 05                	jne    400ec0 <frame_dummy+0x10>
  400ebb:	eb 93                	jmp    400e50 <register_tm_clones>
  400ebd:	0f 1f 00             	nopl   (%rax)
  400ec0:	b8 00 00 00 00       	mov    $0x0,%eax
  400ec5:	48 85 c0             	test   %rax,%rax
  400ec8:	74 f1                	je     400ebb <frame_dummy+0xb>
  400eca:	55                   	push   %rbp
  400ecb:	48 89 e5             	mov    %rsp,%rbp
  400ece:	ff d0                	callq  *%rax
  400ed0:	5d                   	pop    %rbp
  400ed1:	e9 7a ff ff ff       	jmpq   400e50 <register_tm_clones>

0000000000400ed6 <usage>:
  400ed6:	48 83 ec 08          	sub    $0x8,%rsp
  400eda:	48 89 fe             	mov    %rdi,%rsi
  400edd:	83 3d 24 36 20 00 00 	cmpl   $0x0,0x203624(%rip)        # 604508 <is_checker>
  400ee4:	74 4b                	je     400f31 <usage+0x5b>
  400ee6:	48 8d 3d 5b 1e 00 00 	lea    0x1e5b(%rip),%rdi        # 402d48 <_IO_stdin_used+0x8>
  400eed:	b8 00 00 00 00       	mov    $0x0,%eax
  400ef2:	e8 69 fd ff ff       	callq  400c60 <printf@plt>
  400ef7:	48 8d 3d 82 1e 00 00 	lea    0x1e82(%rip),%rdi        # 402d80 <_IO_stdin_used+0x40>
  400efe:	e8 2d fd ff ff       	callq  400c30 <puts@plt>
  400f03:	48 8d 3d ae 1f 00 00 	lea    0x1fae(%rip),%rdi        # 402eb8 <_IO_stdin_used+0x178>
  400f0a:	e8 21 fd ff ff       	callq  400c30 <puts@plt>
  400f0f:	48 8d 3d 92 1e 00 00 	lea    0x1e92(%rip),%rdi        # 402da8 <_IO_stdin_used+0x68>
  400f16:	e8 15 fd ff ff       	callq  400c30 <puts@plt>
  400f1b:	48 8d 3d b0 1f 00 00 	lea    0x1fb0(%rip),%rdi        # 402ed2 <_IO_stdin_used+0x192>
  400f22:	e8 09 fd ff ff       	callq  400c30 <puts@plt>
  400f27:	bf 00 00 00 00       	mov    $0x0,%edi
  400f2c:	e8 7f fe ff ff       	callq  400db0 <exit@plt>
  400f31:	48 8d 3d b6 1f 00 00 	lea    0x1fb6(%rip),%rdi        # 402eee <_IO_stdin_used+0x1ae>
  400f38:	b8 00 00 00 00       	mov    $0x0,%eax
  400f3d:	e8 1e fd ff ff       	callq  400c60 <printf@plt>
  400f42:	48 8d 3d 87 1e 00 00 	lea    0x1e87(%rip),%rdi        # 402dd0 <_IO_stdin_used+0x90>
  400f49:	e8 e2 fc ff ff       	callq  400c30 <puts@plt>
  400f4e:	48 8d 3d a3 1e 00 00 	lea    0x1ea3(%rip),%rdi        # 402df8 <_IO_stdin_used+0xb8>
  400f55:	e8 d6 fc ff ff       	callq  400c30 <puts@plt>
  400f5a:	48 8d 3d ab 1f 00 00 	lea    0x1fab(%rip),%rdi        # 402f0c <_IO_stdin_used+0x1cc>
  400f61:	e8 ca fc ff ff       	callq  400c30 <puts@plt>
  400f66:	eb bf                	jmp    400f27 <usage+0x51>

0000000000400f68 <initialize_target>:
  400f68:	55                   	push   %rbp
  400f69:	53                   	push   %rbx
  400f6a:	48 81 ec 08 21 00 00 	sub    $0x2108,%rsp
  400f71:	89 f5                	mov    %esi,%ebp
  400f73:	89 3d 7f 35 20 00    	mov    %edi,0x20357f(%rip)        # 6044f8 <check_level>
  400f79:	8b 3d b1 31 20 00    	mov    0x2031b1(%rip),%edi        # 604130 <target_id>
  400f7f:	e8 19 1d 00 00       	callq  402c9d <gencookie>
  400f84:	89 05 7a 35 20 00    	mov    %eax,0x20357a(%rip)        # 604504 <cookie>
  400f8a:	89 c7                	mov    %eax,%edi
  400f8c:	e8 0c 1d 00 00       	callq  402c9d <gencookie>
  400f91:	89 05 69 35 20 00    	mov    %eax,0x203569(%rip)        # 604500 <authkey>
  400f97:	8b 05 93 31 20 00    	mov    0x203193(%rip),%eax        # 604130 <target_id>
  400f9d:	8d 78 01             	lea    0x1(%rax),%edi
  400fa0:	e8 5b fc ff ff       	callq  400c00 <srandom@plt>
  400fa5:	e8 66 fd ff ff       	callq  400d10 <random@plt>
  400faa:	89 c7                	mov    %eax,%edi
  400fac:	e8 c3 02 00 00       	callq  401274 <scramble>
  400fb1:	89 c3                	mov    %eax,%ebx
  400fb3:	85 ed                	test   %ebp,%ebp
  400fb5:	75 3d                	jne    400ff4 <initialize_target+0x8c>
  400fb7:	b8 00 00 00 00       	mov    $0x0,%eax
  400fbc:	01 d8                	add    %ebx,%eax
  400fbe:	0f b7 c0             	movzwl %ax,%eax
  400fc1:	8d 04 c5 00 01 00 00 	lea    0x100(,%rax,8),%eax
  400fc8:	89 c0                	mov    %eax,%eax
  400fca:	48 89 05 af 34 20 00 	mov    %rax,0x2034af(%rip)        # 604480 <buf_offset>
  400fd1:	c6 05 50 41 20 00 63 	movb   $0x63,0x204150(%rip)        # 605128 <target_prefix>
  400fd8:	83 3d a9 34 20 00 00 	cmpl   $0x0,0x2034a9(%rip)        # 604488 <notify>
  400fdf:	74 09                	je     400fea <initialize_target+0x82>
  400fe1:	83 3d 20 35 20 00 00 	cmpl   $0x0,0x203520(%rip)        # 604508 <is_checker>
  400fe8:	74 22                	je     40100c <initialize_target+0xa4>
  400fea:	48 81 c4 08 21 00 00 	add    $0x2108,%rsp
  400ff1:	5b                   	pop    %rbx
  400ff2:	5d                   	pop    %rbp
  400ff3:	c3                   	retq   
  400ff4:	bf 00 00 00 00       	mov    $0x0,%edi
  400ff9:	e8 02 fd ff ff       	callq  400d00 <time@plt>
  400ffe:	89 c7                	mov    %eax,%edi
  401000:	e8 fb fb ff ff       	callq  400c00 <srandom@plt>
  401005:	e8 06 fd ff ff       	callq  400d10 <random@plt>
  40100a:	eb b0                	jmp    400fbc <initialize_target+0x54>
  40100c:	48 89 e7             	mov    %rsp,%rdi
  40100f:	be 00 01 00 00       	mov    $0x100,%esi
  401014:	e8 77 fd ff ff       	callq  400d90 <gethostname@plt>
  401019:	89 c3                	mov    %eax,%ebx
  40101b:	85 c0                	test   %eax,%eax
  40101d:	75 24                	jne    401043 <initialize_target+0xdb>
  40101f:	48 63 c3             	movslq %ebx,%rax
  401022:	48 8d 15 37 31 20 00 	lea    0x203137(%rip),%rdx        # 604160 <host_table>
  401029:	48 8b 3c c2          	mov    (%rdx,%rax,8),%rdi
  40102d:	48 85 ff             	test   %rdi,%rdi
  401030:	74 27                	je     401059 <initialize_target+0xf1>
  401032:	48 89 e6             	mov    %rsp,%rsi
  401035:	e8 a6 fb ff ff       	callq  400be0 <strcasecmp@plt>
  40103a:	85 c0                	test   %eax,%eax
  40103c:	74 1b                	je     401059 <initialize_target+0xf1>
  40103e:	83 c3 01             	add    $0x1,%ebx
  401041:	eb dc                	jmp    40101f <initialize_target+0xb7>
  401043:	48 8d 3d de 1d 00 00 	lea    0x1dde(%rip),%rdi        # 402e28 <_IO_stdin_used+0xe8>
  40104a:	e8 e1 fb ff ff       	callq  400c30 <puts@plt>
  40104f:	bf 08 00 00 00       	mov    $0x8,%edi
  401054:	e8 57 fd ff ff       	callq  400db0 <exit@plt>
  401059:	48 8d bc 24 00 01 00 	lea    0x100(%rsp),%rdi
  401060:	00 
  401061:	e8 bc 19 00 00       	callq  402a22 <init_driver>
  401066:	85 c0                	test   %eax,%eax
  401068:	79 80                	jns    400fea <initialize_target+0x82>
  40106a:	48 8d b4 24 00 01 00 	lea    0x100(%rsp),%rsi
  401071:	00 
  401072:	48 8d 3d e7 1d 00 00 	lea    0x1de7(%rip),%rdi        # 402e60 <_IO_stdin_used+0x120>
  401079:	b8 00 00 00 00       	mov    $0x0,%eax
  40107e:	e8 dd fb ff ff       	callq  400c60 <printf@plt>
  401083:	bf 08 00 00 00       	mov    $0x8,%edi
  401088:	e8 23 fd ff ff       	callq  400db0 <exit@plt>

000000000040108d <main>:
  40108d:	41 56                	push   %r14
  40108f:	41 55                	push   %r13
  401091:	41 54                	push   %r12
  401093:	55                   	push   %rbp
  401094:	53                   	push   %rbx
  401095:	41 89 fc             	mov    %edi,%r12d
  401098:	48 89 f3             	mov    %rsi,%rbx
  40109b:	48 c7 c6 c8 1d 40 00 	mov    $0x401dc8,%rsi
  4010a2:	bf 0b 00 00 00       	mov    $0xb,%edi
  4010a7:	e8 04 fc ff ff       	callq  400cb0 <signal@plt>
  4010ac:	48 c7 c6 74 1d 40 00 	mov    $0x401d74,%rsi
  4010b3:	bf 07 00 00 00       	mov    $0x7,%edi
  4010b8:	e8 f3 fb ff ff       	callq  400cb0 <signal@plt>
  4010bd:	48 c7 c6 1c 1e 40 00 	mov    $0x401e1c,%rsi
  4010c4:	bf 04 00 00 00       	mov    $0x4,%edi
  4010c9:	e8 e2 fb ff ff       	callq  400cb0 <signal@plt>
  4010ce:	83 3d 33 34 20 00 00 	cmpl   $0x0,0x203433(%rip)        # 604508 <is_checker>
  4010d5:	75 58                	jne    40112f <main+0xa2>
  4010d7:	48 8d 2d 47 1e 00 00 	lea    0x1e47(%rip),%rbp        # 402f25 <_IO_stdin_used+0x1e5>
  4010de:	48 8b 05 bb 33 20 00 	mov    0x2033bb(%rip),%rax        # 6044a0 <stdin@@GLIBC_2.2.5>
  4010e5:	48 89 05 04 34 20 00 	mov    %rax,0x203404(%rip)        # 6044f0 <infile>
  4010ec:	41 bd 00 00 00 00    	mov    $0x0,%r13d
  4010f2:	41 be 00 00 00 00    	mov    $0x0,%r14d
  4010f8:	48 89 ea             	mov    %rbp,%rdx
  4010fb:	48 89 de             	mov    %rbx,%rsi
  4010fe:	44 89 e7             	mov    %r12d,%edi
  401101:	e8 6a fc ff ff       	callq  400d70 <getopt@plt>
  401106:	3c ff                	cmp    $0xff,%al
  401108:	0f 84 f8 00 00 00    	je     401206 <main+0x179>
  40110e:	0f be f0             	movsbl %al,%esi
  401111:	83 e8 61             	sub    $0x61,%eax
  401114:	3c 10                	cmp    $0x10,%al
  401116:	0f 87 d1 00 00 00    	ja     4011ed <main+0x160>
  40111c:	0f b6 c0             	movzbl %al,%eax
  40111f:	48 8d 15 4a 1e 00 00 	lea    0x1e4a(%rip),%rdx        # 402f70 <_IO_stdin_used+0x230>
  401126:	48 63 04 82          	movslq (%rdx,%rax,4),%rax
  40112a:	48 01 d0             	add    %rdx,%rax
  40112d:	ff e0                	jmpq   *%rax
  40112f:	48 c7 c6 70 1e 40 00 	mov    $0x401e70,%rsi
  401136:	bf 0e 00 00 00       	mov    $0xe,%edi
  40113b:	e8 70 fb ff ff       	callq  400cb0 <signal@plt>
  401140:	bf 05 00 00 00       	mov    $0x5,%edi
  401145:	e8 36 fb ff ff       	callq  400c80 <alarm@plt>
  40114a:	48 8d 2d d9 1d 00 00 	lea    0x1dd9(%rip),%rbp        # 402f2a <_IO_stdin_used+0x1ea>
  401151:	eb 8b                	jmp    4010de <main+0x51>
  401153:	48 8b 3b             	mov    (%rbx),%rdi
  401156:	e8 7b fd ff ff       	callq  400ed6 <usage>
  40115b:	48 8d 35 2b 20 00 00 	lea    0x202b(%rip),%rsi        # 40318d <_IO_stdin_used+0x44d>
  401162:	48 8b 3d 3f 33 20 00 	mov    0x20333f(%rip),%rdi        # 6044a8 <optarg@@GLIBC_2.2.5>
  401169:	e8 f2 fb ff ff       	callq  400d60 <fopen@plt>
  40116e:	48 89 05 7b 33 20 00 	mov    %rax,0x20337b(%rip)        # 6044f0 <infile>
  401175:	48 85 c0             	test   %rax,%rax
  401178:	0f 85 7a ff ff ff    	jne    4010f8 <main+0x6b>
  40117e:	48 8b 15 23 33 20 00 	mov    0x203323(%rip),%rdx        # 6044a8 <optarg@@GLIBC_2.2.5>
  401185:	48 8d 35 a6 1d 00 00 	lea    0x1da6(%rip),%rsi        # 402f32 <_IO_stdin_used+0x1f2>
  40118c:	48 8b 3d 2d 33 20 00 	mov    0x20332d(%rip),%rdi        # 6044c0 <stderr@@GLIBC_2.2.5>
  401193:	e8 38 fb ff ff       	callq  400cd0 <fprintf@plt>
  401198:	b8 01 00 00 00       	mov    $0x1,%eax
  40119d:	e9 c9 00 00 00       	jmpq   40126b <main+0x1de>
  4011a2:	ba 10 00 00 00       	mov    $0x10,%edx
  4011a7:	be 00 00 00 00       	mov    $0x0,%esi
  4011ac:	48 8b 3d f5 32 20 00 	mov    0x2032f5(%rip),%rdi        # 6044a8 <optarg@@GLIBC_2.2.5>
  4011b3:	e8 c8 fb ff ff       	callq  400d80 <strtoul@plt>
  4011b8:	41 89 c6             	mov    %eax,%r14d
  4011bb:	e9 38 ff ff ff       	jmpq   4010f8 <main+0x6b>
  4011c0:	ba 0a 00 00 00       	mov    $0xa,%edx
  4011c5:	be 00 00 00 00       	mov    $0x0,%esi
  4011ca:	48 8b 3d d7 32 20 00 	mov    0x2032d7(%rip),%rdi        # 6044a8 <optarg@@GLIBC_2.2.5>
  4011d1:	e8 0a fb ff ff       	callq  400ce0 <strtol@plt>
  4011d6:	41 89 c5             	mov    %eax,%r13d
  4011d9:	e9 1a ff ff ff       	jmpq   4010f8 <main+0x6b>
  4011de:	c7 05 a0 32 20 00 00 	movl   $0x0,0x2032a0(%rip)        # 604488 <notify>
  4011e5:	00 00 00 
  4011e8:	e9 0b ff ff ff       	jmpq   4010f8 <main+0x6b>
  4011ed:	48 8d 3d 5b 1d 00 00 	lea    0x1d5b(%rip),%rdi        # 402f4f <_IO_stdin_used+0x20f>
  4011f4:	b8 00 00 00 00       	mov    $0x0,%eax
  4011f9:	e8 62 fa ff ff       	callq  400c60 <printf@plt>
  4011fe:	48 8b 3b             	mov    (%rbx),%rdi
  401201:	e8 d0 fc ff ff       	callq  400ed6 <usage>
  401206:	be 00 00 00 00       	mov    $0x0,%esi
  40120b:	44 89 ef             	mov    %r13d,%edi
  40120e:	e8 55 fd ff ff       	callq  400f68 <initialize_target>
  401213:	83 3d ee 32 20 00 00 	cmpl   $0x0,0x2032ee(%rip)        # 604508 <is_checker>
  40121a:	74 27                	je     401243 <main+0x1b6>
  40121c:	44 3b 35 dd 32 20 00 	cmp    0x2032dd(%rip),%r14d        # 604500 <authkey>
  401223:	74 1e                	je     401243 <main+0x1b6>
  401225:	44 89 f6             	mov    %r14d,%esi
  401228:	48 8d 3d 59 1c 00 00 	lea    0x1c59(%rip),%rdi        # 402e88 <_IO_stdin_used+0x148>
  40122f:	b8 00 00 00 00       	mov    $0x0,%eax
  401234:	e8 27 fa ff ff       	callq  400c60 <printf@plt>
  401239:	b8 00 00 00 00       	mov    $0x0,%eax
  40123e:	e8 01 08 00 00       	callq  401a44 <check_fail>
  401243:	8b 35 bb 32 20 00    	mov    0x2032bb(%rip),%esi        # 604504 <cookie>
  401249:	48 8d 3d 12 1d 00 00 	lea    0x1d12(%rip),%rdi        # 402f62 <_IO_stdin_used+0x222>
  401250:	b8 00 00 00 00       	mov    $0x0,%eax
  401255:	e8 06 fa ff ff       	callq  400c60 <printf@plt>
  40125a:	48 8b 3d 1f 32 20 00 	mov    0x20321f(%rip),%rdi        # 604480 <buf_offset>
  401261:	e8 e5 0c 00 00       	callq  401f4b <stable_launch>
  401266:	b8 00 00 00 00       	mov    $0x0,%eax
  40126b:	5b                   	pop    %rbx
  40126c:	5d                   	pop    %rbp
  40126d:	41 5c                	pop    %r12
  40126f:	41 5d                	pop    %r13
  401271:	41 5e                	pop    %r14
  401273:	c3                   	retq   

0000000000401274 <scramble>:
  401274:	b8 00 00 00 00       	mov    $0x0,%eax
  401279:	eb 11                	jmp    40128c <scramble+0x18>
  40127b:	69 d0 dc 58 00 00    	imul   $0x58dc,%eax,%edx
  401281:	01 fa                	add    %edi,%edx
  401283:	89 c1                	mov    %eax,%ecx
  401285:	89 54 8c d0          	mov    %edx,-0x30(%rsp,%rcx,4)
  401289:	83 c0 01             	add    $0x1,%eax
  40128c:	83 f8 09             	cmp    $0x9,%eax
  40128f:	76 ea                	jbe    40127b <scramble+0x7>
  401291:	8b 44 24 f0          	mov    -0x10(%rsp),%eax
  401295:	69 c0 39 3a 00 00    	imul   $0x3a39,%eax,%eax
  40129b:	89 44 24 f0          	mov    %eax,-0x10(%rsp)
  40129f:	8b 44 24 e4          	mov    -0x1c(%rsp),%eax
  4012a3:	69 c0 95 d1 00 00    	imul   $0xd195,%eax,%eax
  4012a9:	89 44 24 e4          	mov    %eax,-0x1c(%rsp)
  4012ad:	8b 44 24 e4          	mov    -0x1c(%rsp),%eax
  4012b1:	69 c0 88 99 00 00    	imul   $0x9988,%eax,%eax
  4012b7:	89 44 24 e4          	mov    %eax,-0x1c(%rsp)
  4012bb:	8b 44 24 e8          	mov    -0x18(%rsp),%eax
  4012bf:	69 c0 21 6d 00 00    	imul   $0x6d21,%eax,%eax
  4012c5:	89 44 24 e8          	mov    %eax,-0x18(%rsp)
  4012c9:	8b 44 24 ec          	mov    -0x14(%rsp),%eax
  4012cd:	69 c0 b1 cf 00 00    	imul   $0xcfb1,%eax,%eax
  4012d3:	89 44 24 ec          	mov    %eax,-0x14(%rsp)
  4012d7:	8b 44 24 ec          	mov    -0x14(%rsp),%eax
  4012db:	69 c0 a1 eb 00 00    	imul   $0xeba1,%eax,%eax
  4012e1:	89 44 24 ec          	mov    %eax,-0x14(%rsp)
  4012e5:	8b 44 24 d0          	mov    -0x30(%rsp),%eax
  4012e9:	69 c0 08 7c 00 00    	imul   $0x7c08,%eax,%eax
  4012ef:	89 44 24 d0          	mov    %eax,-0x30(%rsp)
  4012f3:	8b 44 24 e8          	mov    -0x18(%rsp),%eax
  4012f7:	69 c0 97 05 00 00    	imul   $0x597,%eax,%eax
  4012fd:	89 44 24 e8          	mov    %eax,-0x18(%rsp)
  401301:	8b 44 24 e4          	mov    -0x1c(%rsp),%eax
  401305:	69 c0 18 94 00 00    	imul   $0x9418,%eax,%eax
  40130b:	89 44 24 e4          	mov    %eax,-0x1c(%rsp)
  40130f:	8b 44 24 d8          	mov    -0x28(%rsp),%eax
  401313:	69 c0 02 7b 00 00    	imul   $0x7b02,%eax,%eax
  401319:	89 44 24 d8          	mov    %eax,-0x28(%rsp)
  40131d:	8b 44 24 d8          	mov    -0x28(%rsp),%eax
  401321:	69 c0 d1 dc 00 00    	imul   $0xdcd1,%eax,%eax
  401327:	89 44 24 d8          	mov    %eax,-0x28(%rsp)
  40132b:	8b 44 24 e8          	mov    -0x18(%rsp),%eax
  40132f:	69 c0 4e f7 00 00    	imul   $0xf74e,%eax,%eax
  401335:	89 44 24 e8          	mov    %eax,-0x18(%rsp)
  401339:	8b 44 24 e0          	mov    -0x20(%rsp),%eax
  40133d:	69 c0 e7 65 00 00    	imul   $0x65e7,%eax,%eax
  401343:	89 44 24 e0          	mov    %eax,-0x20(%rsp)
  401347:	8b 44 24 f4          	mov    -0xc(%rsp),%eax
  40134b:	69 c0 8f bb 00 00    	imul   $0xbb8f,%eax,%eax
  401351:	89 44 24 f4          	mov    %eax,-0xc(%rsp)
  401355:	8b 44 24 e0          	mov    -0x20(%rsp),%eax
  401359:	69 c0 08 b0 00 00    	imul   $0xb008,%eax,%eax
  40135f:	89 44 24 e0          	mov    %eax,-0x20(%rsp)
  401363:	8b 44 24 f4          	mov    -0xc(%rsp),%eax
  401367:	69 c0 30 5d 00 00    	imul   $0x5d30,%eax,%eax
  40136d:	89 44 24 f4          	mov    %eax,-0xc(%rsp)
  401371:	8b 44 24 e4          	mov    -0x1c(%rsp),%eax
  401375:	69 c0 dc 19 00 00    	imul   $0x19dc,%eax,%eax
  40137b:	89 44 24 e4          	mov    %eax,-0x1c(%rsp)
  40137f:	8b 44 24 f0          	mov    -0x10(%rsp),%eax
  401383:	69 c0 89 97 00 00    	imul   $0x9789,%eax,%eax
  401389:	89 44 24 f0          	mov    %eax,-0x10(%rsp)
  40138d:	8b 44 24 e8          	mov    -0x18(%rsp),%eax
  401391:	69 c0 9c a4 00 00    	imul   $0xa49c,%eax,%eax
  401397:	89 44 24 e8          	mov    %eax,-0x18(%rsp)
  40139b:	8b 44 24 d4          	mov    -0x2c(%rsp),%eax
  40139f:	69 c0 06 6e 00 00    	imul   $0x6e06,%eax,%eax
  4013a5:	89 44 24 d4          	mov    %eax,-0x2c(%rsp)
  4013a9:	8b 44 24 d8          	mov    -0x28(%rsp),%eax
  4013ad:	69 c0 37 ae 00 00    	imul   $0xae37,%eax,%eax
  4013b3:	89 44 24 d8          	mov    %eax,-0x28(%rsp)
  4013b7:	8b 44 24 ec          	mov    -0x14(%rsp),%eax
  4013bb:	69 c0 6c 7c 00 00    	imul   $0x7c6c,%eax,%eax
  4013c1:	89 44 24 ec          	mov    %eax,-0x14(%rsp)
  4013c5:	8b 44 24 e0          	mov    -0x20(%rsp),%eax
  4013c9:	69 c0 34 92 00 00    	imul   $0x9234,%eax,%eax
  4013cf:	89 44 24 e0          	mov    %eax,-0x20(%rsp)
  4013d3:	8b 44 24 d8          	mov    -0x28(%rsp),%eax
  4013d7:	69 c0 d5 d9 00 00    	imul   $0xd9d5,%eax,%eax
  4013dd:	89 44 24 d8          	mov    %eax,-0x28(%rsp)
  4013e1:	8b 44 24 dc          	mov    -0x24(%rsp),%eax
  4013e5:	69 c0 59 c0 00 00    	imul   $0xc059,%eax,%eax
  4013eb:	89 44 24 dc          	mov    %eax,-0x24(%rsp)
  4013ef:	8b 44 24 e0          	mov    -0x20(%rsp),%eax
  4013f3:	69 c0 30 fc 00 00    	imul   $0xfc30,%eax,%eax
  4013f9:	89 44 24 e0          	mov    %eax,-0x20(%rsp)
  4013fd:	8b 44 24 d0          	mov    -0x30(%rsp),%eax
  401401:	69 c0 d6 3a 00 00    	imul   $0x3ad6,%eax,%eax
  401407:	89 44 24 d0          	mov    %eax,-0x30(%rsp)
  40140b:	8b 44 24 f4          	mov    -0xc(%rsp),%eax
  40140f:	69 c0 0c 69 00 00    	imul   $0x690c,%eax,%eax
  401415:	89 44 24 f4          	mov    %eax,-0xc(%rsp)
  401419:	8b 44 24 e4          	mov    -0x1c(%rsp),%eax
  40141d:	69 c0 0a ec 00 00    	imul   $0xec0a,%eax,%eax
  401423:	89 44 24 e4          	mov    %eax,-0x1c(%rsp)
  401427:	8b 44 24 f0          	mov    -0x10(%rsp),%eax
  40142b:	69 c0 10 a5 00 00    	imul   $0xa510,%eax,%eax
  401431:	89 44 24 f0          	mov    %eax,-0x10(%rsp)
  401435:	8b 44 24 f0          	mov    -0x10(%rsp),%eax
  401439:	69 c0 23 43 00 00    	imul   $0x4323,%eax,%eax
  40143f:	89 44 24 f0          	mov    %eax,-0x10(%rsp)
  401443:	8b 44 24 e4          	mov    -0x1c(%rsp),%eax
  401447:	69 c0 53 86 00 00    	imul   $0x8653,%eax,%eax
  40144d:	89 44 24 e4          	mov    %eax,-0x1c(%rsp)
  401451:	8b 44 24 e8          	mov    -0x18(%rsp),%eax
  401455:	69 c0 05 31 00 00    	imul   $0x3105,%eax,%eax
  40145b:	89 44 24 e8          	mov    %eax,-0x18(%rsp)
  40145f:	8b 44 24 ec          	mov    -0x14(%rsp),%eax
  401463:	69 c0 63 10 00 00    	imul   $0x1063,%eax,%eax
  401469:	89 44 24 ec          	mov    %eax,-0x14(%rsp)
  40146d:	8b 44 24 d0          	mov    -0x30(%rsp),%eax
  401471:	69 c0 86 22 00 00    	imul   $0x2286,%eax,%eax
  401477:	89 44 24 d0          	mov    %eax,-0x30(%rsp)
  40147b:	8b 44 24 f0          	mov    -0x10(%rsp),%eax
  40147f:	69 c0 ee 49 00 00    	imul   $0x49ee,%eax,%eax
  401485:	89 44 24 f0          	mov    %eax,-0x10(%rsp)
  401489:	8b 44 24 d4          	mov    -0x2c(%rsp),%eax
  40148d:	69 c0 12 d8 00 00    	imul   $0xd812,%eax,%eax
  401493:	89 44 24 d4          	mov    %eax,-0x2c(%rsp)
  401497:	8b 44 24 f0          	mov    -0x10(%rsp),%eax
  40149b:	69 c0 fd fa 00 00    	imul   $0xfafd,%eax,%eax
  4014a1:	89 44 24 f0          	mov    %eax,-0x10(%rsp)
  4014a5:	8b 44 24 dc          	mov    -0x24(%rsp),%eax
  4014a9:	69 c0 5f 48 00 00    	imul   $0x485f,%eax,%eax
  4014af:	89 44 24 dc          	mov    %eax,-0x24(%rsp)
  4014b3:	8b 44 24 e8          	mov    -0x18(%rsp),%eax
  4014b7:	69 c0 92 90 00 00    	imul   $0x9092,%eax,%eax
  4014bd:	89 44 24 e8          	mov    %eax,-0x18(%rsp)
  4014c1:	8b 44 24 f0          	mov    -0x10(%rsp),%eax
  4014c5:	69 c0 aa 29 00 00    	imul   $0x29aa,%eax,%eax
  4014cb:	89 44 24 f0          	mov    %eax,-0x10(%rsp)
  4014cf:	8b 44 24 e0          	mov    -0x20(%rsp),%eax
  4014d3:	69 c0 e2 a5 00 00    	imul   $0xa5e2,%eax,%eax
  4014d9:	89 44 24 e0          	mov    %eax,-0x20(%rsp)
  4014dd:	8b 44 24 d8          	mov    -0x28(%rsp),%eax
  4014e1:	69 c0 40 80 00 00    	imul   $0x8040,%eax,%eax
  4014e7:	89 44 24 d8          	mov    %eax,-0x28(%rsp)
  4014eb:	8b 44 24 e8          	mov    -0x18(%rsp),%eax
  4014ef:	69 c0 3d 05 00 00    	imul   $0x53d,%eax,%eax
  4014f5:	89 44 24 e8          	mov    %eax,-0x18(%rsp)
  4014f9:	8b 44 24 d8          	mov    -0x28(%rsp),%eax
  4014fd:	69 c0 8a 33 00 00    	imul   $0x338a,%eax,%eax
  401503:	89 44 24 d8          	mov    %eax,-0x28(%rsp)
  401507:	8b 44 24 d4          	mov    -0x2c(%rsp),%eax
  40150b:	69 c0 5c 08 00 00    	imul   $0x85c,%eax,%eax
  401511:	89 44 24 d4          	mov    %eax,-0x2c(%rsp)
  401515:	8b 44 24 e4          	mov    -0x1c(%rsp),%eax
  401519:	69 c0 8e ac 00 00    	imul   $0xac8e,%eax,%eax
  40151f:	89 44 24 e4          	mov    %eax,-0x1c(%rsp)
  401523:	8b 44 24 f0          	mov    -0x10(%rsp),%eax
  401527:	69 c0 ad d3 00 00    	imul   $0xd3ad,%eax,%eax
  40152d:	89 44 24 f0          	mov    %eax,-0x10(%rsp)
  401531:	8b 44 24 e0          	mov    -0x20(%rsp),%eax
  401535:	69 c0 8c ac 00 00    	imul   $0xac8c,%eax,%eax
  40153b:	89 44 24 e0          	mov    %eax,-0x20(%rsp)
  40153f:	8b 44 24 e8          	mov    -0x18(%rsp),%eax
  401543:	69 c0 35 b3 00 00    	imul   $0xb335,%eax,%eax
  401549:	89 44 24 e8          	mov    %eax,-0x18(%rsp)
  40154d:	8b 44 24 f0          	mov    -0x10(%rsp),%eax
  401551:	69 c0 7a 62 00 00    	imul   $0x627a,%eax,%eax
  401557:	89 44 24 f0          	mov    %eax,-0x10(%rsp)
  40155b:	8b 44 24 d0          	mov    -0x30(%rsp),%eax
  40155f:	69 c0 d0 9f 00 00    	imul   $0x9fd0,%eax,%eax
  401565:	89 44 24 d0          	mov    %eax,-0x30(%rsp)
  401569:	8b 44 24 d8          	mov    -0x28(%rsp),%eax
  40156d:	69 c0 7f c3 00 00    	imul   $0xc37f,%eax,%eax
  401573:	89 44 24 d8          	mov    %eax,-0x28(%rsp)
  401577:	8b 44 24 e8          	mov    -0x18(%rsp),%eax
  40157b:	69 c0 d2 a4 00 00    	imul   $0xa4d2,%eax,%eax
  401581:	89 44 24 e8          	mov    %eax,-0x18(%rsp)
  401585:	8b 44 24 e0          	mov    -0x20(%rsp),%eax
  401589:	69 c0 a1 6f 00 00    	imul   $0x6fa1,%eax,%eax
  40158f:	89 44 24 e0          	mov    %eax,-0x20(%rsp)
  401593:	8b 44 24 dc          	mov    -0x24(%rsp),%eax
  401597:	69 c0 96 14 00 00    	imul   $0x1496,%eax,%eax
  40159d:	89 44 24 dc          	mov    %eax,-0x24(%rsp)
  4015a1:	8b 44 24 d8          	mov    -0x28(%rsp),%eax
  4015a5:	69 c0 26 c2 00 00    	imul   $0xc226,%eax,%eax
  4015ab:	89 44 24 d8          	mov    %eax,-0x28(%rsp)
  4015af:	8b 44 24 e0          	mov    -0x20(%rsp),%eax
  4015b3:	69 c0 cc fd 00 00    	imul   $0xfdcc,%eax,%eax
  4015b9:	89 44 24 e0          	mov    %eax,-0x20(%rsp)
  4015bd:	8b 44 24 dc          	mov    -0x24(%rsp),%eax
  4015c1:	69 c0 66 c9 00 00    	imul   $0xc966,%eax,%eax
  4015c7:	89 44 24 dc          	mov    %eax,-0x24(%rsp)
  4015cb:	8b 44 24 e8          	mov    -0x18(%rsp),%eax
  4015cf:	69 c0 b0 ae 00 00    	imul   $0xaeb0,%eax,%eax
  4015d5:	89 44 24 e8          	mov    %eax,-0x18(%rsp)
  4015d9:	8b 44 24 f0          	mov    -0x10(%rsp),%eax
  4015dd:	69 c0 57 ad 00 00    	imul   $0xad57,%eax,%eax
  4015e3:	89 44 24 f0          	mov    %eax,-0x10(%rsp)
  4015e7:	8b 44 24 d0          	mov    -0x30(%rsp),%eax
  4015eb:	69 c0 9e 73 00 00    	imul   $0x739e,%eax,%eax
  4015f1:	89 44 24 d0          	mov    %eax,-0x30(%rsp)
  4015f5:	8b 44 24 f4          	mov    -0xc(%rsp),%eax
  4015f9:	69 c0 bc 45 00 00    	imul   $0x45bc,%eax,%eax
  4015ff:	89 44 24 f4          	mov    %eax,-0xc(%rsp)
  401603:	8b 44 24 f0          	mov    -0x10(%rsp),%eax
  401607:	69 c0 7a 37 00 00    	imul   $0x377a,%eax,%eax
  40160d:	89 44 24 f0          	mov    %eax,-0x10(%rsp)
  401611:	8b 44 24 e4          	mov    -0x1c(%rsp),%eax
  401615:	69 c0 5b 2b 00 00    	imul   $0x2b5b,%eax,%eax
  40161b:	89 44 24 e4          	mov    %eax,-0x1c(%rsp)
  40161f:	8b 44 24 d8          	mov    -0x28(%rsp),%eax
  401623:	69 c0 5a c1 00 00    	imul   $0xc15a,%eax,%eax
  401629:	89 44 24 d8          	mov    %eax,-0x28(%rsp)
  40162d:	8b 44 24 d4          	mov    -0x2c(%rsp),%eax
  401631:	69 c0 d3 e7 00 00    	imul   $0xe7d3,%eax,%eax
  401637:	89 44 24 d4          	mov    %eax,-0x2c(%rsp)
  40163b:	8b 44 24 e0          	mov    -0x20(%rsp),%eax
  40163f:	69 c0 62 c8 00 00    	imul   $0xc862,%eax,%eax
  401645:	89 44 24 e0          	mov    %eax,-0x20(%rsp)
  401649:	8b 44 24 ec          	mov    -0x14(%rsp),%eax
  40164d:	69 c0 f9 fb 00 00    	imul   $0xfbf9,%eax,%eax
  401653:	89 44 24 ec          	mov    %eax,-0x14(%rsp)
  401657:	8b 44 24 d8          	mov    -0x28(%rsp),%eax
  40165b:	69 c0 30 b7 00 00    	imul   $0xb730,%eax,%eax
  401661:	89 44 24 d8          	mov    %eax,-0x28(%rsp)
  401665:	8b 44 24 e0          	mov    -0x20(%rsp),%eax
  401669:	69 c0 99 a2 00 00    	imul   $0xa299,%eax,%eax
  40166f:	89 44 24 e0          	mov    %eax,-0x20(%rsp)
  401673:	8b 44 24 e8          	mov    -0x18(%rsp),%eax
  401677:	69 c0 e5 04 00 00    	imul   $0x4e5,%eax,%eax
  40167d:	89 44 24 e8          	mov    %eax,-0x18(%rsp)
  401681:	8b 44 24 e4          	mov    -0x1c(%rsp),%eax
  401685:	69 c0 3e 86 00 00    	imul   $0x863e,%eax,%eax
  40168b:	89 44 24 e4          	mov    %eax,-0x1c(%rsp)
  40168f:	8b 44 24 e4          	mov    -0x1c(%rsp),%eax
  401693:	69 c0 26 a7 00 00    	imul   $0xa726,%eax,%eax
  401699:	89 44 24 e4          	mov    %eax,-0x1c(%rsp)
  40169d:	8b 44 24 dc          	mov    -0x24(%rsp),%eax
  4016a1:	69 c0 bb 05 00 00    	imul   $0x5bb,%eax,%eax
  4016a7:	89 44 24 dc          	mov    %eax,-0x24(%rsp)
  4016ab:	8b 44 24 f0          	mov    -0x10(%rsp),%eax
  4016af:	69 c0 95 4c 00 00    	imul   $0x4c95,%eax,%eax
  4016b5:	89 44 24 f0          	mov    %eax,-0x10(%rsp)
  4016b9:	8b 44 24 dc          	mov    -0x24(%rsp),%eax
  4016bd:	69 c0 e3 0c 00 00    	imul   $0xce3,%eax,%eax
  4016c3:	89 44 24 dc          	mov    %eax,-0x24(%rsp)
  4016c7:	8b 44 24 ec          	mov    -0x14(%rsp),%eax
  4016cb:	69 c0 f8 0c 00 00    	imul   $0xcf8,%eax,%eax
  4016d1:	89 44 24 ec          	mov    %eax,-0x14(%rsp)
  4016d5:	8b 44 24 f0          	mov    -0x10(%rsp),%eax
  4016d9:	69 c0 7e 07 00 00    	imul   $0x77e,%eax,%eax
  4016df:	89 44 24 f0          	mov    %eax,-0x10(%rsp)
  4016e3:	8b 44 24 d0          	mov    -0x30(%rsp),%eax
  4016e7:	69 c0 e7 44 00 00    	imul   $0x44e7,%eax,%eax
  4016ed:	89 44 24 d0          	mov    %eax,-0x30(%rsp)
  4016f1:	8b 44 24 d8          	mov    -0x28(%rsp),%eax
  4016f5:	69 c0 22 2f 00 00    	imul   $0x2f22,%eax,%eax
  4016fb:	89 44 24 d8          	mov    %eax,-0x28(%rsp)
  4016ff:	8b 44 24 f4          	mov    -0xc(%rsp),%eax
  401703:	69 c0 b0 c0 00 00    	imul   $0xc0b0,%eax,%eax
  401709:	89 44 24 f4          	mov    %eax,-0xc(%rsp)
  40170d:	8b 44 24 e8          	mov    -0x18(%rsp),%eax
  401711:	69 c0 6d 67 00 00    	imul   $0x676d,%eax,%eax
  401717:	89 44 24 e8          	mov    %eax,-0x18(%rsp)
  40171b:	8b 44 24 d0          	mov    -0x30(%rsp),%eax
  40171f:	69 c0 48 c2 00 00    	imul   $0xc248,%eax,%eax
  401725:	89 44 24 d0          	mov    %eax,-0x30(%rsp)
  401729:	8b 44 24 e8          	mov    -0x18(%rsp),%eax
  40172d:	69 c0 47 f6 00 00    	imul   $0xf647,%eax,%eax
  401733:	89 44 24 e8          	mov    %eax,-0x18(%rsp)
  401737:	8b 44 24 ec          	mov    -0x14(%rsp),%eax
  40173b:	69 c0 00 cf 00 00    	imul   $0xcf00,%eax,%eax
  401741:	89 44 24 ec          	mov    %eax,-0x14(%rsp)
  401745:	8b 44 24 f4          	mov    -0xc(%rsp),%eax
  401749:	69 c0 3f 45 00 00    	imul   $0x453f,%eax,%eax
  40174f:	89 44 24 f4          	mov    %eax,-0xc(%rsp)
  401753:	8b 44 24 d4          	mov    -0x2c(%rsp),%eax
  401757:	69 c0 a1 fd 00 00    	imul   $0xfda1,%eax,%eax
  40175d:	89 44 24 d4          	mov    %eax,-0x2c(%rsp)
  401761:	8b 44 24 e4          	mov    -0x1c(%rsp),%eax
  401765:	69 c0 97 d6 00 00    	imul   $0xd697,%eax,%eax
  40176b:	89 44 24 e4          	mov    %eax,-0x1c(%rsp)
  40176f:	8b 44 24 f0          	mov    -0x10(%rsp),%eax
  401773:	69 c0 22 1b 00 00    	imul   $0x1b22,%eax,%eax
  401779:	89 44 24 f0          	mov    %eax,-0x10(%rsp)
  40177d:	8b 44 24 d0          	mov    -0x30(%rsp),%eax
  401781:	69 c0 9e fa 00 00    	imul   $0xfa9e,%eax,%eax
  401787:	89 44 24 d0          	mov    %eax,-0x30(%rsp)
  40178b:	8b 44 24 e0          	mov    -0x20(%rsp),%eax
  40178f:	69 c0 64 8f 00 00    	imul   $0x8f64,%eax,%eax
  401795:	89 44 24 e0          	mov    %eax,-0x20(%rsp)
  401799:	8b 44 24 ec          	mov    -0x14(%rsp),%eax
  40179d:	69 c0 eb 27 00 00    	imul   $0x27eb,%eax,%eax
  4017a3:	89 44 24 ec          	mov    %eax,-0x14(%rsp)
  4017a7:	8b 44 24 d8          	mov    -0x28(%rsp),%eax
  4017ab:	69 c0 21 5a 00 00    	imul   $0x5a21,%eax,%eax
  4017b1:	89 44 24 d8          	mov    %eax,-0x28(%rsp)
  4017b5:	8b 44 24 d4          	mov    -0x2c(%rsp),%eax
  4017b9:	69 c0 cf e0 00 00    	imul   $0xe0cf,%eax,%eax
  4017bf:	89 44 24 d4          	mov    %eax,-0x2c(%rsp)
  4017c3:	8b 44 24 d4          	mov    -0x2c(%rsp),%eax
  4017c7:	69 c0 44 62 00 00    	imul   $0x6244,%eax,%eax
  4017cd:	89 44 24 d4          	mov    %eax,-0x2c(%rsp)
  4017d1:	8b 44 24 e8          	mov    -0x18(%rsp),%eax
  4017d5:	69 c0 4b a5 00 00    	imul   $0xa54b,%eax,%eax
  4017db:	89 44 24 e8          	mov    %eax,-0x18(%rsp)
  4017df:	8b 44 24 d0          	mov    -0x30(%rsp),%eax
  4017e3:	69 c0 e7 26 00 00    	imul   $0x26e7,%eax,%eax
  4017e9:	89 44 24 d0          	mov    %eax,-0x30(%rsp)
  4017ed:	8b 44 24 f4          	mov    -0xc(%rsp),%eax
  4017f1:	69 c0 06 ac 00 00    	imul   $0xac06,%eax,%eax
  4017f7:	89 44 24 f4          	mov    %eax,-0xc(%rsp)
  4017fb:	8b 44 24 f0          	mov    -0x10(%rsp),%eax
  4017ff:	69 c0 1e 70 00 00    	imul   $0x701e,%eax,%eax
  401805:	89 44 24 f0          	mov    %eax,-0x10(%rsp)
  401809:	ba 00 00 00 00       	mov    $0x0,%edx
  40180e:	b8 00 00 00 00       	mov    $0x0,%eax
  401813:	eb 0b                	jmp    401820 <scramble+0x5ac>
  401815:	89 d1                	mov    %edx,%ecx
  401817:	8b 4c 8c d0          	mov    -0x30(%rsp,%rcx,4),%ecx
  40181b:	01 c8                	add    %ecx,%eax
  40181d:	83 c2 01             	add    $0x1,%edx
  401820:	83 fa 09             	cmp    $0x9,%edx
  401823:	76 f0                	jbe    401815 <scramble+0x5a1>
  401825:	f3 c3                	repz retq 

0000000000401827 <getbuf>:
  401827:	48 83 ec 28          	sub    $0x28,%rsp
  40182b:	48 89 e7             	mov    %rsp,%rdi
  40182e:	e8 44 02 00 00       	callq  401a77 <Gets>
  401833:	b8 01 00 00 00       	mov    $0x1,%eax
  401838:	48 83 c4 28          	add    $0x28,%rsp
  40183c:	c3                   	retq   

000000000040183d <touch1>:
  40183d:	48 83 ec 08          	sub    $0x8,%rsp
  401841:	c7 05 b1 2c 20 00 01 	movl   $0x1,0x202cb1(%rip)        # 6044fc <vlevel>
  401848:	00 00 00 
  40184b:	48 8d 3d 94 17 00 00 	lea    0x1794(%rip),%rdi        # 402fe6 <_IO_stdin_used+0x2a6>
  401852:	e8 d9 f3 ff ff       	callq  400c30 <puts@plt>
  401857:	bf 01 00 00 00       	mov    $0x1,%edi
  40185c:	e8 2d 04 00 00       	callq  401c8e <validate>
  401861:	bf 00 00 00 00       	mov    $0x0,%edi
  401866:	e8 45 f5 ff ff       	callq  400db0 <exit@plt>

000000000040186b <touch2>:
  40186b:	48 83 ec 08          	sub    $0x8,%rsp
  40186f:	89 fe                	mov    %edi,%esi
  401871:	c7 05 81 2c 20 00 02 	movl   $0x2,0x202c81(%rip)        # 6044fc <vlevel>
  401878:	00 00 00 
  40187b:	39 3d 83 2c 20 00    	cmp    %edi,0x202c83(%rip)        # 604504 <cookie>
  401881:	74 25                	je     4018a8 <touch2+0x3d>
  401883:	48 8d 3d a6 17 00 00 	lea    0x17a6(%rip),%rdi        # 403030 <_IO_stdin_used+0x2f0>
  40188a:	b8 00 00 00 00       	mov    $0x0,%eax
  40188f:	e8 cc f3 ff ff       	callq  400c60 <printf@plt>
  401894:	bf 02 00 00 00       	mov    $0x2,%edi
  401899:	e8 ae 04 00 00       	callq  401d4c <fail>
  40189e:	bf 00 00 00 00       	mov    $0x0,%edi
  4018a3:	e8 08 f5 ff ff       	callq  400db0 <exit@plt>
  4018a8:	48 8d 3d 59 17 00 00 	lea    0x1759(%rip),%rdi        # 403008 <_IO_stdin_used+0x2c8>
  4018af:	b8 00 00 00 00       	mov    $0x0,%eax
  4018b4:	e8 a7 f3 ff ff       	callq  400c60 <printf@plt>
  4018b9:	bf 02 00 00 00       	mov    $0x2,%edi
  4018be:	e8 cb 03 00 00       	callq  401c8e <validate>
  4018c3:	eb d9                	jmp    40189e <touch2+0x33>

00000000004018c5 <hexmatch>:
  4018c5:	41 54                	push   %r12
  4018c7:	55                   	push   %rbp
  4018c8:	53                   	push   %rbx
  4018c9:	48 83 ec 70          	sub    $0x70,%rsp
  4018cd:	89 fd                	mov    %edi,%ebp
  4018cf:	48 89 f3             	mov    %rsi,%rbx
  4018d2:	e8 39 f4 ff ff       	callq  400d10 <random@plt>
  4018d7:	48 89 c1             	mov    %rax,%rcx
  4018da:	48 ba 0b d7 a3 70 3d 	movabs $0xa3d70a3d70a3d70b,%rdx
  4018e1:	0a d7 a3 
  4018e4:	48 f7 ea             	imul   %rdx
  4018e7:	48 01 ca             	add    %rcx,%rdx
  4018ea:	48 c1 fa 06          	sar    $0x6,%rdx
  4018ee:	48 89 c8             	mov    %rcx,%rax
  4018f1:	48 c1 f8 3f          	sar    $0x3f,%rax
  4018f5:	48 29 c2             	sub    %rax,%rdx
  4018f8:	48 8d 04 92          	lea    (%rdx,%rdx,4),%rax
  4018fc:	48 8d 14 80          	lea    (%rax,%rax,4),%rdx
  401900:	48 8d 04 95 00 00 00 	lea    0x0(,%rdx,4),%rax
  401907:	00 
  401908:	48 29 c1             	sub    %rax,%rcx
  40190b:	4c 8d 24 0c          	lea    (%rsp,%rcx,1),%r12
  40190f:	89 ea                	mov    %ebp,%edx
  401911:	48 8d 35 eb 16 00 00 	lea    0x16eb(%rip),%rsi        # 403003 <_IO_stdin_used+0x2c3>
  401918:	4c 89 e7             	mov    %r12,%rdi
  40191b:	b8 00 00 00 00       	mov    $0x0,%eax
  401920:	e8 7b f4 ff ff       	callq  400da0 <sprintf@plt>
  401925:	ba 09 00 00 00       	mov    $0x9,%edx
  40192a:	4c 89 e6             	mov    %r12,%rsi
  40192d:	48 89 df             	mov    %rbx,%rdi
  401930:	e8 db f2 ff ff       	callq  400c10 <strncmp@plt>
  401935:	85 c0                	test   %eax,%eax
  401937:	0f 94 c0             	sete   %al
  40193a:	0f b6 c0             	movzbl %al,%eax
  40193d:	48 83 c4 70          	add    $0x70,%rsp
  401941:	5b                   	pop    %rbx
  401942:	5d                   	pop    %rbp
  401943:	41 5c                	pop    %r12
  401945:	c3                   	retq   

0000000000401946 <touch3>:
  401946:	53                   	push   %rbx
  401947:	48 89 fb             	mov    %rdi,%rbx
  40194a:	c7 05 a8 2b 20 00 03 	movl   $0x3,0x202ba8(%rip)        # 6044fc <vlevel>
  401951:	00 00 00 
  401954:	48 89 fe             	mov    %rdi,%rsi
  401957:	8b 3d a7 2b 20 00    	mov    0x202ba7(%rip),%edi        # 604504 <cookie>
  40195d:	e8 63 ff ff ff       	callq  4018c5 <hexmatch>
  401962:	85 c0                	test   %eax,%eax
  401964:	74 28                	je     40198e <touch3+0x48>
  401966:	48 89 de             	mov    %rbx,%rsi
  401969:	48 8d 3d e8 16 00 00 	lea    0x16e8(%rip),%rdi        # 403058 <_IO_stdin_used+0x318>
  401970:	b8 00 00 00 00       	mov    $0x0,%eax
  401975:	e8 e6 f2 ff ff       	callq  400c60 <printf@plt>
  40197a:	bf 03 00 00 00       	mov    $0x3,%edi
  40197f:	e8 0a 03 00 00       	callq  401c8e <validate>
  401984:	bf 00 00 00 00       	mov    $0x0,%edi
  401989:	e8 22 f4 ff ff       	callq  400db0 <exit@plt>
  40198e:	48 89 de             	mov    %rbx,%rsi
  401991:	48 8d 3d e8 16 00 00 	lea    0x16e8(%rip),%rdi        # 403080 <_IO_stdin_used+0x340>
  401998:	b8 00 00 00 00       	mov    $0x0,%eax
  40199d:	e8 be f2 ff ff       	callq  400c60 <printf@plt>
  4019a2:	bf 03 00 00 00       	mov    $0x3,%edi
  4019a7:	e8 a0 03 00 00       	callq  401d4c <fail>
  4019ac:	eb d6                	jmp    401984 <touch3+0x3e>

00000000004019ae <test>:
  4019ae:	48 83 ec 08          	sub    $0x8,%rsp
  4019b2:	b8 00 00 00 00       	mov    $0x0,%eax
  4019b7:	e8 6b fe ff ff       	callq  401827 <getbuf>
  4019bc:	89 c6                	mov    %eax,%esi
  4019be:	48 8d 3d e3 16 00 00 	lea    0x16e3(%rip),%rdi        # 4030a8 <_IO_stdin_used+0x368>
  4019c5:	b8 00 00 00 00       	mov    $0x0,%eax
  4019ca:	e8 91 f2 ff ff       	callq  400c60 <printf@plt>
  4019cf:	48 83 c4 08          	add    $0x8,%rsp
  4019d3:	c3                   	retq   

00000000004019d4 <save_char>:
  4019d4:	8b 05 4a 37 20 00    	mov    0x20374a(%rip),%eax        # 605124 <gets_cnt>
  4019da:	3d ff 03 00 00       	cmp    $0x3ff,%eax
  4019df:	7f 4a                	jg     401a2b <save_char+0x57>
  4019e1:	8d 14 40             	lea    (%rax,%rax,2),%edx
  4019e4:	89 f9                	mov    %edi,%ecx
  4019e6:	c0 e9 04             	shr    $0x4,%cl
  4019e9:	4c 8d 05 e0 19 00 00 	lea    0x19e0(%rip),%r8        # 4033d0 <trans_char>
  4019f0:	83 e1 0f             	and    $0xf,%ecx
  4019f3:	45 0f b6 0c 08       	movzbl (%r8,%rcx,1),%r9d
  4019f8:	48 8d 0d 21 2b 20 00 	lea    0x202b21(%rip),%rcx        # 604520 <gets_buf>
  4019ff:	48 63 f2             	movslq %edx,%rsi
  401a02:	44 88 0c 31          	mov    %r9b,(%rcx,%rsi,1)
  401a06:	8d 72 01             	lea    0x1(%rdx),%esi
  401a09:	83 e7 0f             	and    $0xf,%edi
  401a0c:	41 0f b6 3c 38       	movzbl (%r8,%rdi,1),%edi
  401a11:	48 63 f6             	movslq %esi,%rsi
  401a14:	40 88 3c 31          	mov    %dil,(%rcx,%rsi,1)
  401a18:	83 c2 02             	add    $0x2,%edx
  401a1b:	48 63 d2             	movslq %edx,%rdx
  401a1e:	c6 04 11 20          	movb   $0x20,(%rcx,%rdx,1)
  401a22:	83 c0 01             	add    $0x1,%eax
  401a25:	89 05 f9 36 20 00    	mov    %eax,0x2036f9(%rip)        # 605124 <gets_cnt>
  401a2b:	f3 c3                	repz retq 

0000000000401a2d <save_term>:
  401a2d:	8b 05 f1 36 20 00    	mov    0x2036f1(%rip),%eax        # 605124 <gets_cnt>
  401a33:	8d 04 40             	lea    (%rax,%rax,2),%eax
  401a36:	48 98                	cltq   
  401a38:	48 8d 15 e1 2a 20 00 	lea    0x202ae1(%rip),%rdx        # 604520 <gets_buf>
  401a3f:	c6 04 02 00          	movb   $0x0,(%rdx,%rax,1)
  401a43:	c3                   	retq   

0000000000401a44 <check_fail>:
  401a44:	48 83 ec 08          	sub    $0x8,%rsp
  401a48:	0f be 35 d9 36 20 00 	movsbl 0x2036d9(%rip),%esi        # 605128 <target_prefix>
  401a4f:	48 8d 0d ca 2a 20 00 	lea    0x202aca(%rip),%rcx        # 604520 <gets_buf>
  401a56:	8b 15 9c 2a 20 00    	mov    0x202a9c(%rip),%edx        # 6044f8 <check_level>
  401a5c:	48 8d 3d 68 16 00 00 	lea    0x1668(%rip),%rdi        # 4030cb <_IO_stdin_used+0x38b>
  401a63:	b8 00 00 00 00       	mov    $0x0,%eax
  401a68:	e8 f3 f1 ff ff       	callq  400c60 <printf@plt>
  401a6d:	bf 01 00 00 00       	mov    $0x1,%edi
  401a72:	e8 39 f3 ff ff       	callq  400db0 <exit@plt>

0000000000401a77 <Gets>:
  401a77:	41 54                	push   %r12
  401a79:	55                   	push   %rbp
  401a7a:	53                   	push   %rbx
  401a7b:	49 89 fc             	mov    %rdi,%r12
  401a7e:	c7 05 9c 36 20 00 00 	movl   $0x0,0x20369c(%rip)        # 605124 <gets_cnt>
  401a85:	00 00 00 
  401a88:	48 89 fb             	mov    %rdi,%rbx
  401a8b:	eb 11                	jmp    401a9e <Gets+0x27>
  401a8d:	48 8d 6b 01          	lea    0x1(%rbx),%rbp
  401a91:	88 03                	mov    %al,(%rbx)
  401a93:	0f b6 f8             	movzbl %al,%edi
  401a96:	e8 39 ff ff ff       	callq  4019d4 <save_char>
  401a9b:	48 89 eb             	mov    %rbp,%rbx
  401a9e:	48 8b 3d 4b 2a 20 00 	mov    0x202a4b(%rip),%rdi        # 6044f0 <infile>
  401aa5:	e8 76 f2 ff ff       	callq  400d20 <_IO_getc@plt>
  401aaa:	83 f8 ff             	cmp    $0xffffffff,%eax
  401aad:	74 05                	je     401ab4 <Gets+0x3d>
  401aaf:	83 f8 0a             	cmp    $0xa,%eax
  401ab2:	75 d9                	jne    401a8d <Gets+0x16>
  401ab4:	c6 03 00             	movb   $0x0,(%rbx)
  401ab7:	b8 00 00 00 00       	mov    $0x0,%eax
  401abc:	e8 6c ff ff ff       	callq  401a2d <save_term>
  401ac1:	4c 89 e0             	mov    %r12,%rax
  401ac4:	5b                   	pop    %rbx
  401ac5:	5d                   	pop    %rbp
  401ac6:	41 5c                	pop    %r12
  401ac8:	c3                   	retq   

0000000000401ac9 <notify_server>:
  401ac9:	83 3d 38 2a 20 00 00 	cmpl   $0x0,0x202a38(%rip)        # 604508 <is_checker>
  401ad0:	0f 85 de 00 00 00    	jne    401bb4 <notify_server+0xeb>
  401ad6:	55                   	push   %rbp
  401ad7:	53                   	push   %rbx
  401ad8:	48 81 ec 08 40 00 00 	sub    $0x4008,%rsp
  401adf:	89 fb                	mov    %edi,%ebx
  401ae1:	8b 05 3d 36 20 00    	mov    0x20363d(%rip),%eax        # 605124 <gets_cnt>
  401ae7:	83 c0 64             	add    $0x64,%eax
  401aea:	3d 00 20 00 00       	cmp    $0x2000,%eax
  401aef:	0f 8f c1 00 00 00    	jg     401bb6 <notify_server+0xed>
  401af5:	44 0f be 0d 2b 36 20 	movsbl 0x20362b(%rip),%r9d        # 605128 <target_prefix>
  401afc:	00 
  401afd:	83 3d 84 29 20 00 00 	cmpl   $0x0,0x202984(%rip)        # 604488 <notify>
  401b04:	0f 84 c7 00 00 00    	je     401bd1 <notify_server+0x108>
  401b0a:	44 8b 05 ef 29 20 00 	mov    0x2029ef(%rip),%r8d        # 604500 <authkey>
  401b11:	85 db                	test   %ebx,%ebx
  401b13:	0f 84 c3 00 00 00    	je     401bdc <notify_server+0x113>
  401b19:	48 8d 2d c1 15 00 00 	lea    0x15c1(%rip),%rbp        # 4030e1 <_IO_stdin_used+0x3a1>
  401b20:	48 8d bc 24 00 20 00 	lea    0x2000(%rsp),%rdi
  401b27:	00 
  401b28:	48 8d 05 f1 29 20 00 	lea    0x2029f1(%rip),%rax        # 604520 <gets_buf>
  401b2f:	50                   	push   %rax
  401b30:	56                   	push   %rsi
  401b31:	48 89 e9             	mov    %rbp,%rcx
  401b34:	8b 15 f6 25 20 00    	mov    0x2025f6(%rip),%edx        # 604130 <target_id>
  401b3a:	48 8d 35 aa 15 00 00 	lea    0x15aa(%rip),%rsi        # 4030eb <_IO_stdin_used+0x3ab>
  401b41:	b8 00 00 00 00       	mov    $0x0,%eax
  401b46:	e8 55 f2 ff ff       	callq  400da0 <sprintf@plt>
  401b4b:	48 83 c4 10          	add    $0x10,%rsp
  401b4f:	83 3d 32 29 20 00 00 	cmpl   $0x0,0x202932(%rip)        # 604488 <notify>
  401b56:	0f 84 b8 00 00 00    	je     401c14 <notify_server+0x14b>
  401b5c:	85 db                	test   %ebx,%ebx
  401b5e:	0f 84 a2 00 00 00    	je     401c06 <notify_server+0x13d>
  401b64:	48 8d 8c 24 00 20 00 	lea    0x2000(%rsp),%rcx
  401b6b:	00 
  401b6c:	49 89 e1             	mov    %rsp,%r9
  401b6f:	41 b8 00 00 00 00    	mov    $0x0,%r8d
  401b75:	48 8b 15 cc 25 20 00 	mov    0x2025cc(%rip),%rdx        # 604148 <lab>
  401b7c:	48 8b 35 cd 25 20 00 	mov    0x2025cd(%rip),%rsi        # 604150 <course>
  401b83:	48 8b 3d b6 25 20 00 	mov    0x2025b6(%rip),%rdi        # 604140 <user_id>
  401b8a:	e8 6e 10 00 00       	callq  402bfd <driver_post>
  401b8f:	85 c0                	test   %eax,%eax
  401b91:	78 55                	js     401be8 <notify_server+0x11f>
  401b93:	48 8d 3d 96 16 00 00 	lea    0x1696(%rip),%rdi        # 403230 <_IO_stdin_used+0x4f0>
  401b9a:	e8 91 f0 ff ff       	callq  400c30 <puts@plt>
  401b9f:	48 8d 3d 6d 15 00 00 	lea    0x156d(%rip),%rdi        # 403113 <_IO_stdin_used+0x3d3>
  401ba6:	e8 85 f0 ff ff       	callq  400c30 <puts@plt>
  401bab:	48 81 c4 08 40 00 00 	add    $0x4008,%rsp
  401bb2:	5b                   	pop    %rbx
  401bb3:	5d                   	pop    %rbp
  401bb4:	f3 c3                	repz retq 
  401bb6:	48 8d 3d 43 16 00 00 	lea    0x1643(%rip),%rdi        # 403200 <_IO_stdin_used+0x4c0>
  401bbd:	b8 00 00 00 00       	mov    $0x0,%eax
  401bc2:	e8 99 f0 ff ff       	callq  400c60 <printf@plt>
  401bc7:	bf 01 00 00 00       	mov    $0x1,%edi
  401bcc:	e8 df f1 ff ff       	callq  400db0 <exit@plt>
  401bd1:	41 b8 ff ff ff ff    	mov    $0xffffffff,%r8d
  401bd7:	e9 35 ff ff ff       	jmpq   401b11 <notify_server+0x48>
  401bdc:	48 8d 2d 03 15 00 00 	lea    0x1503(%rip),%rbp        # 4030e6 <_IO_stdin_used+0x3a6>
  401be3:	e9 38 ff ff ff       	jmpq   401b20 <notify_server+0x57>
  401be8:	48 89 e6             	mov    %rsp,%rsi
  401beb:	48 8d 3d 15 15 00 00 	lea    0x1515(%rip),%rdi        # 403107 <_IO_stdin_used+0x3c7>
  401bf2:	b8 00 00 00 00       	mov    $0x0,%eax
  401bf7:	e8 64 f0 ff ff       	callq  400c60 <printf@plt>
  401bfc:	bf 01 00 00 00       	mov    $0x1,%edi
  401c01:	e8 aa f1 ff ff       	callq  400db0 <exit@plt>
  401c06:	48 8d 3d 10 15 00 00 	lea    0x1510(%rip),%rdi        # 40311d <_IO_stdin_used+0x3dd>
  401c0d:	e8 1e f0 ff ff       	callq  400c30 <puts@plt>
  401c12:	eb 97                	jmp    401bab <notify_server+0xe2>
  401c14:	48 89 ee             	mov    %rbp,%rsi
  401c17:	48 8d 3d 4a 16 00 00 	lea    0x164a(%rip),%rdi        # 403268 <_IO_stdin_used+0x528>
  401c1e:	b8 00 00 00 00       	mov    $0x0,%eax
  401c23:	e8 38 f0 ff ff       	callq  400c60 <printf@plt>
  401c28:	48 8b 35 11 25 20 00 	mov    0x202511(%rip),%rsi        # 604140 <user_id>
  401c2f:	48 8d 3d ee 14 00 00 	lea    0x14ee(%rip),%rdi        # 403124 <_IO_stdin_used+0x3e4>
  401c36:	b8 00 00 00 00       	mov    $0x0,%eax
  401c3b:	e8 20 f0 ff ff       	callq  400c60 <printf@plt>
  401c40:	48 8b 35 09 25 20 00 	mov    0x202509(%rip),%rsi        # 604150 <course>
  401c47:	48 8d 3d e3 14 00 00 	lea    0x14e3(%rip),%rdi        # 403131 <_IO_stdin_used+0x3f1>
  401c4e:	b8 00 00 00 00       	mov    $0x0,%eax
  401c53:	e8 08 f0 ff ff       	callq  400c60 <printf@plt>
  401c58:	48 8b 35 e9 24 20 00 	mov    0x2024e9(%rip),%rsi        # 604148 <lab>
  401c5f:	48 8d 3d d7 14 00 00 	lea    0x14d7(%rip),%rdi        # 40313d <_IO_stdin_used+0x3fd>
  401c66:	b8 00 00 00 00       	mov    $0x0,%eax
  401c6b:	e8 f0 ef ff ff       	callq  400c60 <printf@plt>
  401c70:	48 8d b4 24 00 20 00 	lea    0x2000(%rsp),%rsi
  401c77:	00 
  401c78:	48 8d 3d c7 14 00 00 	lea    0x14c7(%rip),%rdi        # 403146 <_IO_stdin_used+0x406>
  401c7f:	b8 00 00 00 00       	mov    $0x0,%eax
  401c84:	e8 d7 ef ff ff       	callq  400c60 <printf@plt>
  401c89:	e9 1d ff ff ff       	jmpq   401bab <notify_server+0xe2>

0000000000401c8e <validate>:
  401c8e:	53                   	push   %rbx
  401c8f:	89 fb                	mov    %edi,%ebx
  401c91:	83 3d 70 28 20 00 00 	cmpl   $0x0,0x202870(%rip)        # 604508 <is_checker>
  401c98:	74 68                	je     401d02 <validate+0x74>
  401c9a:	39 3d 5c 28 20 00    	cmp    %edi,0x20285c(%rip)        # 6044fc <vlevel>
  401ca0:	75 2d                	jne    401ccf <validate+0x41>
  401ca2:	8b 35 50 28 20 00    	mov    0x202850(%rip),%esi        # 6044f8 <check_level>
  401ca8:	39 f7                	cmp    %esi,%edi
  401caa:	75 39                	jne    401ce5 <validate+0x57>
  401cac:	0f be 35 75 34 20 00 	movsbl 0x203475(%rip),%esi        # 605128 <target_prefix>
  401cb3:	48 8d 0d 66 28 20 00 	lea    0x202866(%rip),%rcx        # 604520 <gets_buf>
  401cba:	89 fa                	mov    %edi,%edx
  401cbc:	48 8d 3d ad 14 00 00 	lea    0x14ad(%rip),%rdi        # 403170 <_IO_stdin_used+0x430>
  401cc3:	b8 00 00 00 00       	mov    $0x0,%eax
  401cc8:	e8 93 ef ff ff       	callq  400c60 <printf@plt>
  401ccd:	5b                   	pop    %rbx
  401cce:	c3                   	retq   
  401ccf:	48 8d 3d 7c 14 00 00 	lea    0x147c(%rip),%rdi        # 403152 <_IO_stdin_used+0x412>
  401cd6:	e8 55 ef ff ff       	callq  400c30 <puts@plt>
  401cdb:	b8 00 00 00 00       	mov    $0x0,%eax
  401ce0:	e8 5f fd ff ff       	callq  401a44 <check_fail>
  401ce5:	89 fa                	mov    %edi,%edx
  401ce7:	48 8d 3d a2 15 00 00 	lea    0x15a2(%rip),%rdi        # 403290 <_IO_stdin_used+0x550>
  401cee:	b8 00 00 00 00       	mov    $0x0,%eax
  401cf3:	e8 68 ef ff ff       	callq  400c60 <printf@plt>
  401cf8:	b8 00 00 00 00       	mov    $0x0,%eax
  401cfd:	e8 42 fd ff ff       	callq  401a44 <check_fail>
  401d02:	3b 3d f4 27 20 00    	cmp    0x2027f4(%rip),%edi        # 6044fc <vlevel>
  401d08:	74 1a                	je     401d24 <validate+0x96>
  401d0a:	48 8d 3d 41 14 00 00 	lea    0x1441(%rip),%rdi        # 403152 <_IO_stdin_used+0x412>
  401d11:	e8 1a ef ff ff       	callq  400c30 <puts@plt>
  401d16:	89 de                	mov    %ebx,%esi
  401d18:	bf 00 00 00 00       	mov    $0x0,%edi
  401d1d:	e8 a7 fd ff ff       	callq  401ac9 <notify_server>
  401d22:	eb a9                	jmp    401ccd <validate+0x3f>
  401d24:	0f be 15 fd 33 20 00 	movsbl 0x2033fd(%rip),%edx        # 605128 <target_prefix>
  401d2b:	89 fe                	mov    %edi,%esi
  401d2d:	48 8d 3d 84 15 00 00 	lea    0x1584(%rip),%rdi        # 4032b8 <_IO_stdin_used+0x578>
  401d34:	b8 00 00 00 00       	mov    $0x0,%eax
  401d39:	e8 22 ef ff ff       	callq  400c60 <printf@plt>
  401d3e:	89 de                	mov    %ebx,%esi
  401d40:	bf 01 00 00 00       	mov    $0x1,%edi
  401d45:	e8 7f fd ff ff       	callq  401ac9 <notify_server>
  401d4a:	eb 81                	jmp    401ccd <validate+0x3f>

0000000000401d4c <fail>:
  401d4c:	48 83 ec 08          	sub    $0x8,%rsp
  401d50:	83 3d b1 27 20 00 00 	cmpl   $0x0,0x2027b1(%rip)        # 604508 <is_checker>
  401d57:	75 11                	jne    401d6a <fail+0x1e>
  401d59:	89 fe                	mov    %edi,%esi
  401d5b:	bf 00 00 00 00       	mov    $0x0,%edi
  401d60:	e8 64 fd ff ff       	callq  401ac9 <notify_server>
  401d65:	48 83 c4 08          	add    $0x8,%rsp
  401d69:	c3                   	retq   
  401d6a:	b8 00 00 00 00       	mov    $0x0,%eax
  401d6f:	e8 d0 fc ff ff       	callq  401a44 <check_fail>

0000000000401d74 <bushandler>:
  401d74:	48 83 ec 08          	sub    $0x8,%rsp
  401d78:	83 3d 89 27 20 00 00 	cmpl   $0x0,0x202789(%rip)        # 604508 <is_checker>
  401d7f:	74 16                	je     401d97 <bushandler+0x23>
  401d81:	48 8d 3d fd 13 00 00 	lea    0x13fd(%rip),%rdi        # 403185 <_IO_stdin_used+0x445>
  401d88:	e8 a3 ee ff ff       	callq  400c30 <puts@plt>
  401d8d:	b8 00 00 00 00       	mov    $0x0,%eax
  401d92:	e8 ad fc ff ff       	callq  401a44 <check_fail>
  401d97:	48 8d 3d 52 15 00 00 	lea    0x1552(%rip),%rdi        # 4032f0 <_IO_stdin_used+0x5b0>
  401d9e:	e8 8d ee ff ff       	callq  400c30 <puts@plt>
  401da3:	48 8d 3d e5 13 00 00 	lea    0x13e5(%rip),%rdi        # 40318f <_IO_stdin_used+0x44f>
  401daa:	e8 81 ee ff ff       	callq  400c30 <puts@plt>
  401daf:	be 00 00 00 00       	mov    $0x0,%esi
  401db4:	bf 00 00 00 00       	mov    $0x0,%edi
  401db9:	e8 0b fd ff ff       	callq  401ac9 <notify_server>
  401dbe:	bf 01 00 00 00       	mov    $0x1,%edi
  401dc3:	e8 e8 ef ff ff       	callq  400db0 <exit@plt>

0000000000401dc8 <seghandler>:
  401dc8:	48 83 ec 08          	sub    $0x8,%rsp
  401dcc:	83 3d 35 27 20 00 00 	cmpl   $0x0,0x202735(%rip)        # 604508 <is_checker>
  401dd3:	74 16                	je     401deb <seghandler+0x23>
  401dd5:	48 8d 3d c9 13 00 00 	lea    0x13c9(%rip),%rdi        # 4031a5 <_IO_stdin_used+0x465>
  401ddc:	e8 4f ee ff ff       	callq  400c30 <puts@plt>
  401de1:	b8 00 00 00 00       	mov    $0x0,%eax
  401de6:	e8 59 fc ff ff       	callq  401a44 <check_fail>
  401deb:	48 8d 3d 1e 15 00 00 	lea    0x151e(%rip),%rdi        # 403310 <_IO_stdin_used+0x5d0>
  401df2:	e8 39 ee ff ff       	callq  400c30 <puts@plt>
  401df7:	48 8d 3d 91 13 00 00 	lea    0x1391(%rip),%rdi        # 40318f <_IO_stdin_used+0x44f>
  401dfe:	e8 2d ee ff ff       	callq  400c30 <puts@plt>
  401e03:	be 00 00 00 00       	mov    $0x0,%esi
  401e08:	bf 00 00 00 00       	mov    $0x0,%edi
  401e0d:	e8 b7 fc ff ff       	callq  401ac9 <notify_server>
  401e12:	bf 01 00 00 00       	mov    $0x1,%edi
  401e17:	e8 94 ef ff ff       	callq  400db0 <exit@plt>

0000000000401e1c <illegalhandler>:
  401e1c:	48 83 ec 08          	sub    $0x8,%rsp
  401e20:	83 3d e1 26 20 00 00 	cmpl   $0x0,0x2026e1(%rip)        # 604508 <is_checker>
  401e27:	74 16                	je     401e3f <illegalhandler+0x23>
  401e29:	48 8d 3d 88 13 00 00 	lea    0x1388(%rip),%rdi        # 4031b8 <_IO_stdin_used+0x478>
  401e30:	e8 fb ed ff ff       	callq  400c30 <puts@plt>
  401e35:	b8 00 00 00 00       	mov    $0x0,%eax
  401e3a:	e8 05 fc ff ff       	callq  401a44 <check_fail>
  401e3f:	48 8d 3d f2 14 00 00 	lea    0x14f2(%rip),%rdi        # 403338 <_IO_stdin_used+0x5f8>
  401e46:	e8 e5 ed ff ff       	callq  400c30 <puts@plt>
  401e4b:	48 8d 3d 3d 13 00 00 	lea    0x133d(%rip),%rdi        # 40318f <_IO_stdin_used+0x44f>
  401e52:	e8 d9 ed ff ff       	callq  400c30 <puts@plt>
  401e57:	be 00 00 00 00       	mov    $0x0,%esi
  401e5c:	bf 00 00 00 00       	mov    $0x0,%edi
  401e61:	e8 63 fc ff ff       	callq  401ac9 <notify_server>
  401e66:	bf 01 00 00 00       	mov    $0x1,%edi
  401e6b:	e8 40 ef ff ff       	callq  400db0 <exit@plt>

0000000000401e70 <sigalrmhandler>:
  401e70:	48 83 ec 08          	sub    $0x8,%rsp
  401e74:	83 3d 8d 26 20 00 00 	cmpl   $0x0,0x20268d(%rip)        # 604508 <is_checker>
  401e7b:	74 16                	je     401e93 <sigalrmhandler+0x23>
  401e7d:	48 8d 3d 48 13 00 00 	lea    0x1348(%rip),%rdi        # 4031cc <_IO_stdin_used+0x48c>
  401e84:	e8 a7 ed ff ff       	callq  400c30 <puts@plt>
  401e89:	b8 00 00 00 00       	mov    $0x0,%eax
  401e8e:	e8 b1 fb ff ff       	callq  401a44 <check_fail>
  401e93:	be 05 00 00 00       	mov    $0x5,%esi
  401e98:	48 8d 3d c9 14 00 00 	lea    0x14c9(%rip),%rdi        # 403368 <_IO_stdin_used+0x628>
  401e9f:	b8 00 00 00 00       	mov    $0x0,%eax
  401ea4:	e8 b7 ed ff ff       	callq  400c60 <printf@plt>
  401ea9:	be 00 00 00 00       	mov    $0x0,%esi
  401eae:	bf 00 00 00 00       	mov    $0x0,%edi
  401eb3:	e8 11 fc ff ff       	callq  401ac9 <notify_server>
  401eb8:	bf 01 00 00 00       	mov    $0x1,%edi
  401ebd:	e8 ee ee ff ff       	callq  400db0 <exit@plt>

0000000000401ec2 <launch>:
  401ec2:	55                   	push   %rbp
  401ec3:	48 89 e5             	mov    %rsp,%rbp
  401ec6:	48 89 fa             	mov    %rdi,%rdx
  401ec9:	48 8d 47 1e          	lea    0x1e(%rdi),%rax
  401ecd:	48 83 e0 f0          	and    $0xfffffffffffffff0,%rax
  401ed1:	48 29 c4             	sub    %rax,%rsp
  401ed4:	48 8d 7c 24 0f       	lea    0xf(%rsp),%rdi
  401ed9:	48 83 e7 f0          	and    $0xfffffffffffffff0,%rdi
  401edd:	be f4 00 00 00       	mov    $0xf4,%esi
  401ee2:	e8 89 ed ff ff       	callq  400c70 <memset@plt>
  401ee7:	48 8b 05 b2 25 20 00 	mov    0x2025b2(%rip),%rax        # 6044a0 <stdin@@GLIBC_2.2.5>
  401eee:	48 39 05 fb 25 20 00 	cmp    %rax,0x2025fb(%rip)        # 6044f0 <infile>
  401ef5:	74 2b                	je     401f22 <launch+0x60>
  401ef7:	c7 05 fb 25 20 00 00 	movl   $0x0,0x2025fb(%rip)        # 6044fc <vlevel>
  401efe:	00 00 00 
  401f01:	b8 00 00 00 00       	mov    $0x0,%eax
  401f06:	e8 a3 fa ff ff       	callq  4019ae <test>
  401f0b:	83 3d f6 25 20 00 00 	cmpl   $0x0,0x2025f6(%rip)        # 604508 <is_checker>
  401f12:	75 21                	jne    401f35 <launch+0x73>
  401f14:	48 8d 3d d1 12 00 00 	lea    0x12d1(%rip),%rdi        # 4031ec <_IO_stdin_used+0x4ac>
  401f1b:	e8 10 ed ff ff       	callq  400c30 <puts@plt>
  401f20:	c9                   	leaveq 
  401f21:	c3                   	retq   
  401f22:	48 8d 3d ab 12 00 00 	lea    0x12ab(%rip),%rdi        # 4031d4 <_IO_stdin_used+0x494>
  401f29:	b8 00 00 00 00       	mov    $0x0,%eax
  401f2e:	e8 2d ed ff ff       	callq  400c60 <printf@plt>
  401f33:	eb c2                	jmp    401ef7 <launch+0x35>
  401f35:	48 8d 3d a5 12 00 00 	lea    0x12a5(%rip),%rdi        # 4031e1 <_IO_stdin_used+0x4a1>
  401f3c:	e8 ef ec ff ff       	callq  400c30 <puts@plt>
  401f41:	b8 00 00 00 00       	mov    $0x0,%eax
  401f46:	e8 f9 fa ff ff       	callq  401a44 <check_fail>

0000000000401f4b <stable_launch>:
  401f4b:	53                   	push   %rbx
  401f4c:	48 89 3d 95 25 20 00 	mov    %rdi,0x202595(%rip)        # 6044e8 <global_offset>
  401f53:	41 b9 00 00 00 00    	mov    $0x0,%r9d
  401f59:	41 b8 00 00 00 00    	mov    $0x0,%r8d
  401f5f:	b9 32 01 00 00       	mov    $0x132,%ecx
  401f64:	ba 07 00 00 00       	mov    $0x7,%edx
  401f69:	be 00 00 10 00       	mov    $0x100000,%esi
  401f6e:	bf 00 60 58 55       	mov    $0x55586000,%edi
  401f73:	e8 d8 ec ff ff       	callq  400c50 <mmap@plt>
  401f78:	48 89 c3             	mov    %rax,%rbx
  401f7b:	48 3d 00 60 58 55    	cmp    $0x55586000,%rax
  401f81:	75 43                	jne    401fc6 <stable_launch+0x7b>
  401f83:	48 8d 90 f8 ff 0f 00 	lea    0xffff8(%rax),%rdx
  401f8a:	48 89 15 9f 31 20 00 	mov    %rdx,0x20319f(%rip)        # 605130 <stack_top>
  401f91:	48 89 e0             	mov    %rsp,%rax
  401f94:	48 89 d4             	mov    %rdx,%rsp
  401f97:	48 89 c2             	mov    %rax,%rdx
  401f9a:	48 89 15 3f 25 20 00 	mov    %rdx,0x20253f(%rip)        # 6044e0 <global_save_stack>
  401fa1:	48 8b 3d 40 25 20 00 	mov    0x202540(%rip),%rdi        # 6044e8 <global_offset>
  401fa8:	e8 15 ff ff ff       	callq  401ec2 <launch>
  401fad:	48 8b 05 2c 25 20 00 	mov    0x20252c(%rip),%rax        # 6044e0 <global_save_stack>
  401fb4:	48 89 c4             	mov    %rax,%rsp
  401fb7:	be 00 00 10 00       	mov    $0x100000,%esi
  401fbc:	48 89 df             	mov    %rbx,%rdi
  401fbf:	e8 7c ed ff ff       	callq  400d40 <munmap@plt>
  401fc4:	5b                   	pop    %rbx
  401fc5:	c3                   	retq   
  401fc6:	be 00 00 10 00       	mov    $0x100000,%esi
  401fcb:	48 89 c7             	mov    %rax,%rdi
  401fce:	e8 6d ed ff ff       	callq  400d40 <munmap@plt>
  401fd3:	ba 00 60 58 55       	mov    $0x55586000,%edx
  401fd8:	48 8d 35 c1 13 00 00 	lea    0x13c1(%rip),%rsi        # 4033a0 <_IO_stdin_used+0x660>
  401fdf:	48 8b 3d da 24 20 00 	mov    0x2024da(%rip),%rdi        # 6044c0 <stderr@@GLIBC_2.2.5>
  401fe6:	b8 00 00 00 00       	mov    $0x0,%eax
  401feb:	e8 e0 ec ff ff       	callq  400cd0 <fprintf@plt>
  401ff0:	bf 01 00 00 00       	mov    $0x1,%edi
  401ff5:	e8 b6 ed ff ff       	callq  400db0 <exit@plt>

0000000000401ffa <rio_readinitb>:
  401ffa:	89 37                	mov    %esi,(%rdi)
  401ffc:	c7 47 04 00 00 00 00 	movl   $0x0,0x4(%rdi)
  402003:	48 8d 47 10          	lea    0x10(%rdi),%rax
  402007:	48 89 47 08          	mov    %rax,0x8(%rdi)
  40200b:	c3                   	retq   

000000000040200c <sigalrm_handler>:
  40200c:	48 83 ec 08          	sub    $0x8,%rsp
  402010:	ba 00 00 00 00       	mov    $0x0,%edx
  402015:	48 8d 35 c4 13 00 00 	lea    0x13c4(%rip),%rsi        # 4033e0 <trans_char+0x10>
  40201c:	48 8b 3d 9d 24 20 00 	mov    0x20249d(%rip),%rdi        # 6044c0 <stderr@@GLIBC_2.2.5>
  402023:	b8 00 00 00 00       	mov    $0x0,%eax
  402028:	e8 a3 ec ff ff       	callq  400cd0 <fprintf@plt>
  40202d:	bf 01 00 00 00       	mov    $0x1,%edi
  402032:	e8 79 ed ff ff       	callq  400db0 <exit@plt>

0000000000402037 <urlencode>:
  402037:	41 54                	push   %r12
  402039:	55                   	push   %rbp
  40203a:	53                   	push   %rbx
  40203b:	48 83 ec 10          	sub    $0x10,%rsp
  40203f:	48 89 fb             	mov    %rdi,%rbx
  402042:	48 89 f5             	mov    %rsi,%rbp
  402045:	b8 00 00 00 00       	mov    $0x0,%eax
  40204a:	48 c7 c1 ff ff ff ff 	mov    $0xffffffffffffffff,%rcx
  402051:	f2 ae                	repnz scas %es:(%rdi),%al
  402053:	48 f7 d1             	not    %rcx
  402056:	8d 41 ff             	lea    -0x1(%rcx),%eax
  402059:	eb 0e                	jmp    402069 <urlencode+0x32>
  40205b:	88 55 00             	mov    %dl,0x0(%rbp)
  40205e:	48 8d 6d 01          	lea    0x1(%rbp),%rbp
  402062:	48 83 c3 01          	add    $0x1,%rbx
  402066:	44 89 e0             	mov    %r12d,%eax
  402069:	44 8d 60 ff          	lea    -0x1(%rax),%r12d
  40206d:	85 c0                	test   %eax,%eax
  40206f:	0f 84 95 00 00 00    	je     40210a <urlencode+0xd3>
  402075:	0f b6 13             	movzbl (%rbx),%edx
  402078:	80 fa 2a             	cmp    $0x2a,%dl
  40207b:	0f 94 c1             	sete   %cl
  40207e:	80 fa 2d             	cmp    $0x2d,%dl
  402081:	0f 94 c0             	sete   %al
  402084:	08 c1                	or     %al,%cl
  402086:	75 d3                	jne    40205b <urlencode+0x24>
  402088:	80 fa 2e             	cmp    $0x2e,%dl
  40208b:	74 ce                	je     40205b <urlencode+0x24>
  40208d:	80 fa 5f             	cmp    $0x5f,%dl
  402090:	74 c9                	je     40205b <urlencode+0x24>
  402092:	8d 42 d0             	lea    -0x30(%rdx),%eax
  402095:	3c 09                	cmp    $0x9,%al
  402097:	76 c2                	jbe    40205b <urlencode+0x24>
  402099:	8d 42 bf             	lea    -0x41(%rdx),%eax
  40209c:	3c 19                	cmp    $0x19,%al
  40209e:	76 bb                	jbe    40205b <urlencode+0x24>
  4020a0:	8d 42 9f             	lea    -0x61(%rdx),%eax
  4020a3:	3c 19                	cmp    $0x19,%al
  4020a5:	76 b4                	jbe    40205b <urlencode+0x24>
  4020a7:	80 fa 20             	cmp    $0x20,%dl
  4020aa:	74 4c                	je     4020f8 <urlencode+0xc1>
  4020ac:	8d 42 e0             	lea    -0x20(%rdx),%eax
  4020af:	3c 5f                	cmp    $0x5f,%al
  4020b1:	0f 96 c1             	setbe  %cl
  4020b4:	80 fa 09             	cmp    $0x9,%dl
  4020b7:	0f 94 c0             	sete   %al
  4020ba:	08 c1                	or     %al,%cl
  4020bc:	74 47                	je     402105 <urlencode+0xce>
  4020be:	0f b6 d2             	movzbl %dl,%edx
  4020c1:	48 8d 7c 24 08       	lea    0x8(%rsp),%rdi
  4020c6:	48 8d 35 ab 13 00 00 	lea    0x13ab(%rip),%rsi        # 403478 <trans_char+0xa8>
  4020cd:	b8 00 00 00 00       	mov    $0x0,%eax
  4020d2:	e8 c9 ec ff ff       	callq  400da0 <sprintf@plt>
  4020d7:	0f b6 44 24 08       	movzbl 0x8(%rsp),%eax
  4020dc:	88 45 00             	mov    %al,0x0(%rbp)
  4020df:	0f b6 44 24 09       	movzbl 0x9(%rsp),%eax
  4020e4:	88 45 01             	mov    %al,0x1(%rbp)
  4020e7:	0f b6 44 24 0a       	movzbl 0xa(%rsp),%eax
  4020ec:	88 45 02             	mov    %al,0x2(%rbp)
  4020ef:	48 8d 6d 03          	lea    0x3(%rbp),%rbp
  4020f3:	e9 6a ff ff ff       	jmpq   402062 <urlencode+0x2b>
  4020f8:	c6 45 00 2b          	movb   $0x2b,0x0(%rbp)
  4020fc:	48 8d 6d 01          	lea    0x1(%rbp),%rbp
  402100:	e9 5d ff ff ff       	jmpq   402062 <urlencode+0x2b>
  402105:	b8 ff ff ff ff       	mov    $0xffffffff,%eax
  40210a:	48 83 c4 10          	add    $0x10,%rsp
  40210e:	5b                   	pop    %rbx
  40210f:	5d                   	pop    %rbp
  402110:	41 5c                	pop    %r12
  402112:	c3                   	retq   

0000000000402113 <rio_writen>:
  402113:	41 55                	push   %r13
  402115:	41 54                	push   %r12
  402117:	55                   	push   %rbp
  402118:	53                   	push   %rbx
  402119:	48 83 ec 08          	sub    $0x8,%rsp
  40211d:	41 89 fc             	mov    %edi,%r12d
  402120:	49 89 d5             	mov    %rdx,%r13
  402123:	48 89 f5             	mov    %rsi,%rbp
  402126:	48 89 d3             	mov    %rdx,%rbx
  402129:	eb 06                	jmp    402131 <rio_writen+0x1e>
  40212b:	48 29 c3             	sub    %rax,%rbx
  40212e:	48 01 c5             	add    %rax,%rbp
  402131:	48 85 db             	test   %rbx,%rbx
  402134:	74 24                	je     40215a <rio_writen+0x47>
  402136:	48 89 da             	mov    %rbx,%rdx
  402139:	48 89 ee             	mov    %rbp,%rsi
  40213c:	44 89 e7             	mov    %r12d,%edi
  40213f:	e8 fc ea ff ff       	callq  400c40 <write@plt>
  402144:	48 85 c0             	test   %rax,%rax
  402147:	7f e2                	jg     40212b <rio_writen+0x18>
  402149:	e8 a2 ea ff ff       	callq  400bf0 <__errno_location@plt>
  40214e:	83 38 04             	cmpl   $0x4,(%rax)
  402151:	75 15                	jne    402168 <rio_writen+0x55>
  402153:	b8 00 00 00 00       	mov    $0x0,%eax
  402158:	eb d1                	jmp    40212b <rio_writen+0x18>
  40215a:	4c 89 e8             	mov    %r13,%rax
  40215d:	48 83 c4 08          	add    $0x8,%rsp
  402161:	5b                   	pop    %rbx
  402162:	5d                   	pop    %rbp
  402163:	41 5c                	pop    %r12
  402165:	41 5d                	pop    %r13
  402167:	c3                   	retq   
  402168:	48 c7 c0 ff ff ff ff 	mov    $0xffffffffffffffff,%rax
  40216f:	eb ec                	jmp    40215d <rio_writen+0x4a>

0000000000402171 <rio_read>:
  402171:	41 55                	push   %r13
  402173:	41 54                	push   %r12
  402175:	55                   	push   %rbp
  402176:	53                   	push   %rbx
  402177:	48 83 ec 08          	sub    $0x8,%rsp
  40217b:	48 89 fb             	mov    %rdi,%rbx
  40217e:	49 89 f5             	mov    %rsi,%r13
  402181:	49 89 d4             	mov    %rdx,%r12
  402184:	eb 0a                	jmp    402190 <rio_read+0x1f>
  402186:	e8 65 ea ff ff       	callq  400bf0 <__errno_location@plt>
  40218b:	83 38 04             	cmpl   $0x4,(%rax)
  40218e:	75 5c                	jne    4021ec <rio_read+0x7b>
  402190:	8b 6b 04             	mov    0x4(%rbx),%ebp
  402193:	85 ed                	test   %ebp,%ebp
  402195:	7f 24                	jg     4021bb <rio_read+0x4a>
  402197:	48 8d 6b 10          	lea    0x10(%rbx),%rbp
  40219b:	ba 00 20 00 00       	mov    $0x2000,%edx
  4021a0:	48 89 ee             	mov    %rbp,%rsi
  4021a3:	8b 3b                	mov    (%rbx),%edi
  4021a5:	e8 f6 ea ff ff       	callq  400ca0 <read@plt>
  4021aa:	89 43 04             	mov    %eax,0x4(%rbx)
  4021ad:	85 c0                	test   %eax,%eax
  4021af:	78 d5                	js     402186 <rio_read+0x15>
  4021b1:	85 c0                	test   %eax,%eax
  4021b3:	74 40                	je     4021f5 <rio_read+0x84>
  4021b5:	48 89 6b 08          	mov    %rbp,0x8(%rbx)
  4021b9:	eb d5                	jmp    402190 <rio_read+0x1f>
  4021bb:	89 e8                	mov    %ebp,%eax
  4021bd:	49 39 c4             	cmp    %rax,%r12
  4021c0:	77 03                	ja     4021c5 <rio_read+0x54>
  4021c2:	44 89 e5             	mov    %r12d,%ebp
  4021c5:	4c 63 e5             	movslq %ebp,%r12
  4021c8:	48 8b 73 08          	mov    0x8(%rbx),%rsi
  4021cc:	4c 89 e2             	mov    %r12,%rdx
  4021cf:	4c 89 ef             	mov    %r13,%rdi
  4021d2:	e8 19 eb ff ff       	callq  400cf0 <memcpy@plt>
  4021d7:	4c 01 63 08          	add    %r12,0x8(%rbx)
  4021db:	29 6b 04             	sub    %ebp,0x4(%rbx)
  4021de:	4c 89 e0             	mov    %r12,%rax
  4021e1:	48 83 c4 08          	add    $0x8,%rsp
  4021e5:	5b                   	pop    %rbx
  4021e6:	5d                   	pop    %rbp
  4021e7:	41 5c                	pop    %r12
  4021e9:	41 5d                	pop    %r13
  4021eb:	c3                   	retq   
  4021ec:	48 c7 c0 ff ff ff ff 	mov    $0xffffffffffffffff,%rax
  4021f3:	eb ec                	jmp    4021e1 <rio_read+0x70>
  4021f5:	b8 00 00 00 00       	mov    $0x0,%eax
  4021fa:	eb e5                	jmp    4021e1 <rio_read+0x70>

00000000004021fc <rio_readlineb>:
  4021fc:	41 55                	push   %r13
  4021fe:	41 54                	push   %r12
  402200:	55                   	push   %rbp
  402201:	53                   	push   %rbx
  402202:	48 83 ec 18          	sub    $0x18,%rsp
  402206:	49 89 fd             	mov    %rdi,%r13
  402209:	49 89 d4             	mov    %rdx,%r12
  40220c:	48 89 f5             	mov    %rsi,%rbp
  40220f:	bb 01 00 00 00       	mov    $0x1,%ebx
  402214:	4c 39 e3             	cmp    %r12,%rbx
  402217:	73 47                	jae    402260 <rio_readlineb+0x64>
  402219:	48 8d 74 24 0f       	lea    0xf(%rsp),%rsi
  40221e:	ba 01 00 00 00       	mov    $0x1,%edx
  402223:	4c 89 ef             	mov    %r13,%rdi
  402226:	e8 46 ff ff ff       	callq  402171 <rio_read>
  40222b:	83 f8 01             	cmp    $0x1,%eax
  40222e:	75 1c                	jne    40224c <rio_readlineb+0x50>
  402230:	48 8d 45 01          	lea    0x1(%rbp),%rax
  402234:	0f b6 54 24 0f       	movzbl 0xf(%rsp),%edx
  402239:	88 55 00             	mov    %dl,0x0(%rbp)
  40223c:	80 7c 24 0f 0a       	cmpb   $0xa,0xf(%rsp)
  402241:	74 1a                	je     40225d <rio_readlineb+0x61>
  402243:	48 83 c3 01          	add    $0x1,%rbx
  402247:	48 89 c5             	mov    %rax,%rbp
  40224a:	eb c8                	jmp    402214 <rio_readlineb+0x18>
  40224c:	85 c0                	test   %eax,%eax
  40224e:	75 22                	jne    402272 <rio_readlineb+0x76>
  402250:	48 83 fb 01          	cmp    $0x1,%rbx
  402254:	75 0a                	jne    402260 <rio_readlineb+0x64>
  402256:	b8 00 00 00 00       	mov    $0x0,%eax
  40225b:	eb 0a                	jmp    402267 <rio_readlineb+0x6b>
  40225d:	48 89 c5             	mov    %rax,%rbp
  402260:	c6 45 00 00          	movb   $0x0,0x0(%rbp)
  402264:	48 89 d8             	mov    %rbx,%rax
  402267:	48 83 c4 18          	add    $0x18,%rsp
  40226b:	5b                   	pop    %rbx
  40226c:	5d                   	pop    %rbp
  40226d:	41 5c                	pop    %r12
  40226f:	41 5d                	pop    %r13
  402271:	c3                   	retq   
  402272:	48 c7 c0 ff ff ff ff 	mov    $0xffffffffffffffff,%rax
  402279:	eb ec                	jmp    402267 <rio_readlineb+0x6b>

000000000040227b <submitr>:
  40227b:	41 57                	push   %r15
  40227d:	41 56                	push   %r14
  40227f:	41 55                	push   %r13
  402281:	41 54                	push   %r12
  402283:	55                   	push   %rbp
  402284:	53                   	push   %rbx
  402285:	48 81 ec 58 a0 00 00 	sub    $0xa058,%rsp
  40228c:	49 89 fd             	mov    %rdi,%r13
  40228f:	89 74 24 14          	mov    %esi,0x14(%rsp)
  402293:	49 89 d7             	mov    %rdx,%r15
  402296:	48 89 4c 24 08       	mov    %rcx,0x8(%rsp)
  40229b:	4c 89 44 24 18       	mov    %r8,0x18(%rsp)
  4022a0:	4d 89 ce             	mov    %r9,%r14
  4022a3:	48 8b 9c 24 90 a0 00 	mov    0xa090(%rsp),%rbx
  4022aa:	00 
  4022ab:	c7 84 24 2c 20 00 00 	movl   $0x0,0x202c(%rsp)
  4022b2:	00 00 00 00 
  4022b6:	ba 00 00 00 00       	mov    $0x0,%edx
  4022bb:	be 01 00 00 00       	mov    $0x1,%esi
  4022c0:	bf 02 00 00 00       	mov    $0x2,%edi
  4022c5:	e8 06 eb ff ff       	callq  400dd0 <socket@plt>
  4022ca:	85 c0                	test   %eax,%eax
  4022cc:	0f 88 ca 01 00 00    	js     40249c <submitr+0x221>
  4022d2:	89 c5                	mov    %eax,%ebp
  4022d4:	4c 89 ef             	mov    %r13,%rdi
  4022d7:	e8 e4 e9 ff ff       	callq  400cc0 <gethostbyname@plt>
  4022dc:	48 85 c0             	test   %rax,%rax
  4022df:	0f 84 05 02 00 00    	je     4024ea <submitr+0x26f>
  4022e5:	4c 8d a4 24 40 a0 00 	lea    0xa040(%rsp),%r12
  4022ec:	00 
  4022ed:	48 c7 84 24 40 a0 00 	movq   $0x0,0xa040(%rsp)
  4022f4:	00 00 00 00 00 
  4022f9:	48 c7 84 24 48 a0 00 	movq   $0x0,0xa048(%rsp)
  402300:	00 00 00 00 00 
  402305:	66 c7 84 24 40 a0 00 	movw   $0x2,0xa040(%rsp)
  40230c:	00 02 00 
  40230f:	48 8b 48 18          	mov    0x18(%rax),%rcx
  402313:	48 63 50 14          	movslq 0x14(%rax),%rdx
  402317:	48 8d b4 24 44 a0 00 	lea    0xa044(%rsp),%rsi
  40231e:	00 
  40231f:	48 8b 39             	mov    (%rcx),%rdi
  402322:	e8 29 ea ff ff       	callq  400d50 <bcopy@plt>
  402327:	0f b7 44 24 14       	movzwl 0x14(%rsp),%eax
  40232c:	66 c1 c8 08          	ror    $0x8,%ax
  402330:	66 89 84 24 42 a0 00 	mov    %ax,0xa042(%rsp)
  402337:	00 
  402338:	ba 10 00 00 00       	mov    $0x10,%edx
  40233d:	4c 89 e6             	mov    %r12,%rsi
  402340:	89 ef                	mov    %ebp,%edi
  402342:	e8 79 ea ff ff       	callq  400dc0 <connect@plt>
  402347:	85 c0                	test   %eax,%eax
  402349:	0f 88 02 02 00 00    	js     402551 <submitr+0x2d6>
  40234f:	48 c7 c6 ff ff ff ff 	mov    $0xffffffffffffffff,%rsi
  402356:	b8 00 00 00 00       	mov    $0x0,%eax
  40235b:	48 89 f1             	mov    %rsi,%rcx
  40235e:	4c 89 f7             	mov    %r14,%rdi
  402361:	f2 ae                	repnz scas %es:(%rdi),%al
  402363:	48 f7 d1             	not    %rcx
  402366:	48 89 ca             	mov    %rcx,%rdx
  402369:	48 89 f1             	mov    %rsi,%rcx
  40236c:	4c 89 ff             	mov    %r15,%rdi
  40236f:	f2 ae                	repnz scas %es:(%rdi),%al
  402371:	48 f7 d1             	not    %rcx
  402374:	49 89 c8             	mov    %rcx,%r8
  402377:	48 89 f1             	mov    %rsi,%rcx
  40237a:	48 8b 7c 24 08       	mov    0x8(%rsp),%rdi
  40237f:	f2 ae                	repnz scas %es:(%rdi),%al
  402381:	48 f7 d1             	not    %rcx
  402384:	4d 8d 44 08 fe       	lea    -0x2(%r8,%rcx,1),%r8
  402389:	48 89 f1             	mov    %rsi,%rcx
  40238c:	48 8b 7c 24 18       	mov    0x18(%rsp),%rdi
  402391:	f2 ae                	repnz scas %es:(%rdi),%al
  402393:	48 89 c8             	mov    %rcx,%rax
  402396:	48 f7 d0             	not    %rax
  402399:	49 8d 4c 00 ff       	lea    -0x1(%r8,%rax,1),%rcx
  40239e:	48 8d 44 52 fd       	lea    -0x3(%rdx,%rdx,2),%rax
  4023a3:	48 8d 84 01 80 00 00 	lea    0x80(%rcx,%rax,1),%rax
  4023aa:	00 
  4023ab:	48 3d 00 20 00 00    	cmp    $0x2000,%rax
  4023b1:	0f 87 f3 01 00 00    	ja     4025aa <submitr+0x32f>
  4023b7:	48 8d b4 24 30 40 00 	lea    0x4030(%rsp),%rsi
  4023be:	00 
  4023bf:	b9 00 04 00 00       	mov    $0x400,%ecx
  4023c4:	b8 00 00 00 00       	mov    $0x0,%eax
  4023c9:	48 89 f7             	mov    %rsi,%rdi
  4023cc:	f3 48 ab             	rep stos %rax,%es:(%rdi)
  4023cf:	4c 89 f7             	mov    %r14,%rdi
  4023d2:	e8 60 fc ff ff       	callq  402037 <urlencode>
  4023d7:	85 c0                	test   %eax,%eax
  4023d9:	0f 88 3d 02 00 00    	js     40261c <submitr+0x3a1>
  4023df:	4c 8d a4 24 30 60 00 	lea    0x6030(%rsp),%r12
  4023e6:	00 
  4023e7:	4d 89 e9             	mov    %r13,%r9
  4023ea:	4c 8d 84 24 30 40 00 	lea    0x4030(%rsp),%r8
  4023f1:	00 
  4023f2:	4c 89 f9             	mov    %r15,%rcx
  4023f5:	48 8b 54 24 08       	mov    0x8(%rsp),%rdx
  4023fa:	48 8d 35 07 10 00 00 	lea    0x1007(%rip),%rsi        # 403408 <trans_char+0x38>
  402401:	4c 89 e7             	mov    %r12,%rdi
  402404:	b8 00 00 00 00       	mov    $0x0,%eax
  402409:	e8 92 e9 ff ff       	callq  400da0 <sprintf@plt>
  40240e:	b8 00 00 00 00       	mov    $0x0,%eax
  402413:	48 c7 c1 ff ff ff ff 	mov    $0xffffffffffffffff,%rcx
  40241a:	4c 89 e7             	mov    %r12,%rdi
  40241d:	f2 ae                	repnz scas %es:(%rdi),%al
  40241f:	48 f7 d1             	not    %rcx
  402422:	48 8d 51 ff          	lea    -0x1(%rcx),%rdx
  402426:	4c 89 e6             	mov    %r12,%rsi
  402429:	89 ef                	mov    %ebp,%edi
  40242b:	e8 e3 fc ff ff       	callq  402113 <rio_writen>
  402430:	48 85 c0             	test   %rax,%rax
  402433:	0f 88 6d 02 00 00    	js     4026a6 <submitr+0x42b>
  402439:	4c 8d a4 24 30 80 00 	lea    0x8030(%rsp),%r12
  402440:	00 
  402441:	89 ee                	mov    %ebp,%esi
  402443:	4c 89 e7             	mov    %r12,%rdi
  402446:	e8 af fb ff ff       	callq  401ffa <rio_readinitb>
  40244b:	48 8d b4 24 30 60 00 	lea    0x6030(%rsp),%rsi
  402452:	00 
  402453:	ba 00 20 00 00       	mov    $0x2000,%edx
  402458:	4c 89 e7             	mov    %r12,%rdi
  40245b:	e8 9c fd ff ff       	callq  4021fc <rio_readlineb>
  402460:	48 85 c0             	test   %rax,%rax
  402463:	0f 8e ab 02 00 00    	jle    402714 <submitr+0x499>
  402469:	48 8d 8c 24 2c 20 00 	lea    0x202c(%rsp),%rcx
  402470:	00 
  402471:	48 8d 94 24 30 20 00 	lea    0x2030(%rsp),%rdx
  402478:	00 
  402479:	48 8d bc 24 30 60 00 	lea    0x6030(%rsp),%rdi
  402480:	00 
  402481:	4c 8d 44 24 20       	lea    0x20(%rsp),%r8
  402486:	48 8d 35 f2 0f 00 00 	lea    0xff2(%rip),%rsi        # 40347f <trans_char+0xaf>
  40248d:	b8 00 00 00 00       	mov    $0x0,%eax
  402492:	e8 99 e8 ff ff       	callq  400d30 <__isoc99_sscanf@plt>
  402497:	e9 9f 03 00 00       	jmpq   40283b <submitr+0x5c0>
  40249c:	48 b8 45 72 72 6f 72 	movabs $0x43203a726f727245,%rax
  4024a3:	3a 20 43 
  4024a6:	48 89 03             	mov    %rax,(%rbx)
  4024a9:	48 b8 6c 69 65 6e 74 	movabs $0x6e7520746e65696c,%rax
  4024b0:	20 75 6e 
  4024b3:	48 89 43 08          	mov    %rax,0x8(%rbx)
  4024b7:	48 b8 61 62 6c 65 20 	movabs $0x206f7420656c6261,%rax
  4024be:	74 6f 20 
  4024c1:	48 89 43 10          	mov    %rax,0x10(%rbx)
  4024c5:	48 b8 63 72 65 61 74 	movabs $0x7320657461657263,%rax
  4024cc:	65 20 73 
  4024cf:	48 89 43 18          	mov    %rax,0x18(%rbx)
  4024d3:	c7 43 20 6f 63 6b 65 	movl   $0x656b636f,0x20(%rbx)
  4024da:	66 c7 43 24 74 00    	movw   $0x74,0x24(%rbx)
  4024e0:	b8 ff ff ff ff       	mov    $0xffffffff,%eax
  4024e5:	e9 18 03 00 00       	jmpq   402802 <submitr+0x587>
  4024ea:	48 b8 45 72 72 6f 72 	movabs $0x44203a726f727245,%rax
  4024f1:	3a 20 44 
  4024f4:	48 89 03             	mov    %rax,(%rbx)
  4024f7:	48 b8 4e 53 20 69 73 	movabs $0x6e7520736920534e,%rax
  4024fe:	20 75 6e 
  402501:	48 89 43 08          	mov    %rax,0x8(%rbx)
  402505:	48 b8 61 62 6c 65 20 	movabs $0x206f7420656c6261,%rax
  40250c:	74 6f 20 
  40250f:	48 89 43 10          	mov    %rax,0x10(%rbx)
  402513:	48 b8 72 65 73 6f 6c 	movabs $0x2065766c6f736572,%rax
  40251a:	76 65 20 
  40251d:	48 89 43 18          	mov    %rax,0x18(%rbx)
  402521:	48 b8 73 65 72 76 65 	movabs $0x6120726576726573,%rax
  402528:	72 20 61 
  40252b:	48 89 43 20          	mov    %rax,0x20(%rbx)
  40252f:	c7 43 28 64 64 72 65 	movl   $0x65726464,0x28(%rbx)
  402536:	66 c7 43 2c 73 73    	movw   $0x7373,0x2c(%rbx)
  40253c:	c6 43 2e 00          	movb   $0x0,0x2e(%rbx)
  402540:	89 ef                	mov    %ebp,%edi
  402542:	e8 49 e7 ff ff       	callq  400c90 <close@plt>
  402547:	b8 ff ff ff ff       	mov    $0xffffffff,%eax
  40254c:	e9 b1 02 00 00       	jmpq   402802 <submitr+0x587>
  402551:	48 b8 45 72 72 6f 72 	movabs $0x55203a726f727245,%rax
  402558:	3a 20 55 
  40255b:	48 89 03             	mov    %rax,(%rbx)
  40255e:	48 b8 6e 61 62 6c 65 	movabs $0x6f7420656c62616e,%rax
  402565:	20 74 6f 
  402568:	48 89 43 08          	mov    %rax,0x8(%rbx)
  40256c:	48 b8 20 63 6f 6e 6e 	movabs $0x7463656e6e6f6320,%rax
  402573:	65 63 74 
  402576:	48 89 43 10          	mov    %rax,0x10(%rbx)
  40257a:	48 b8 20 74 6f 20 74 	movabs $0x20656874206f7420,%rax
  402581:	68 65 20 
  402584:	48 89 43 18          	mov    %rax,0x18(%rbx)
  402588:	c7 43 20 73 65 72 76 	movl   $0x76726573,0x20(%rbx)
  40258f:	66 c7 43 24 65 72    	movw   $0x7265,0x24(%rbx)
  402595:	c6 43 26 00          	movb   $0x0,0x26(%rbx)
  402599:	89 ef                	mov    %ebp,%edi
  40259b:	e8 f0 e6 ff ff       	callq  400c90 <close@plt>
  4025a0:	b8 ff ff ff ff       	mov    $0xffffffff,%eax
  4025a5:	e9 58 02 00 00       	jmpq   402802 <submitr+0x587>
  4025aa:	48 b8 45 72 72 6f 72 	movabs $0x52203a726f727245,%rax
  4025b1:	3a 20 52 
  4025b4:	48 89 03             	mov    %rax,(%rbx)
  4025b7:	48 b8 65 73 75 6c 74 	movabs $0x747320746c757365,%rax
  4025be:	20 73 74 
  4025c1:	48 89 43 08          	mov    %rax,0x8(%rbx)
  4025c5:	48 b8 72 69 6e 67 20 	movabs $0x6f6f7420676e6972,%rax
  4025cc:	74 6f 6f 
  4025cf:	48 89 43 10          	mov    %rax,0x10(%rbx)
  4025d3:	48 b8 20 6c 61 72 67 	movabs $0x202e656772616c20,%rax
  4025da:	65 2e 20 
  4025dd:	48 89 43 18          	mov    %rax,0x18(%rbx)
  4025e1:	48 b8 49 6e 63 72 65 	movabs $0x6573616572636e49,%rax
  4025e8:	61 73 65 
  4025eb:	48 89 43 20          	mov    %rax,0x20(%rbx)
  4025ef:	48 b8 20 53 55 42 4d 	movabs $0x5254494d42555320,%rax
  4025f6:	49 54 52 
  4025f9:	48 89 43 28          	mov    %rax,0x28(%rbx)
  4025fd:	48 b8 5f 4d 41 58 42 	movabs $0x46554258414d5f,%rax
  402604:	55 46 00 
  402607:	48 89 43 30          	mov    %rax,0x30(%rbx)
  40260b:	89 ef                	mov    %ebp,%edi
  40260d:	e8 7e e6 ff ff       	callq  400c90 <close@plt>
  402612:	b8 ff ff ff ff       	mov    $0xffffffff,%eax
  402617:	e9 e6 01 00 00       	jmpq   402802 <submitr+0x587>
  40261c:	48 b8 45 72 72 6f 72 	movabs $0x52203a726f727245,%rax
  402623:	3a 20 52 
  402626:	48 89 03             	mov    %rax,(%rbx)
  402629:	48 b8 65 73 75 6c 74 	movabs $0x747320746c757365,%rax
  402630:	20 73 74 
  402633:	48 89 43 08          	mov    %rax,0x8(%rbx)
  402637:	48 b8 72 69 6e 67 20 	movabs $0x6e6f6320676e6972,%rax
  40263e:	63 6f 6e 
  402641:	48 89 43 10          	mov    %rax,0x10(%rbx)
  402645:	48 b8 74 61 69 6e 73 	movabs $0x6e6120736e696174,%rax
  40264c:	20 61 6e 
  40264f:	48 89 43 18          	mov    %rax,0x18(%rbx)
  402653:	48 b8 20 69 6c 6c 65 	movabs $0x6c6167656c6c6920,%rax
  40265a:	67 61 6c 
  40265d:	48 89 43 20          	mov    %rax,0x20(%rbx)
  402661:	48 b8 20 6f 72 20 75 	movabs $0x72706e7520726f20,%rax
  402668:	6e 70 72 
  40266b:	48 89 43 28          	mov    %rax,0x28(%rbx)
  40266f:	48 b8 69 6e 74 61 62 	movabs $0x20656c6261746e69,%rax
  402676:	6c 65 20 
  402679:	48 89 43 30          	mov    %rax,0x30(%rbx)
  40267d:	48 b8 63 68 61 72 61 	movabs $0x6574636172616863,%rax
  402684:	63 74 65 
  402687:	48 89 43 38          	mov    %rax,0x38(%rbx)
  40268b:	66 c7 43 40 72 2e    	movw   $0x2e72,0x40(%rbx)
  402691:	c6 43 42 00          	movb   $0x0,0x42(%rbx)
  402695:	89 ef                	mov    %ebp,%edi
  402697:	e8 f4 e5 ff ff       	callq  400c90 <close@plt>
  40269c:	b8 ff ff ff ff       	mov    $0xffffffff,%eax
  4026a1:	e9 5c 01 00 00       	jmpq   402802 <submitr+0x587>
  4026a6:	48 b8 45 72 72 6f 72 	movabs $0x43203a726f727245,%rax
  4026ad:	3a 20 43 
  4026b0:	48 89 03             	mov    %rax,(%rbx)
  4026b3:	48 b8 6c 69 65 6e 74 	movabs $0x6e7520746e65696c,%rax
  4026ba:	20 75 6e 
  4026bd:	48 89 43 08          	mov    %rax,0x8(%rbx)
  4026c1:	48 b8 61 62 6c 65 20 	movabs $0x206f7420656c6261,%rax
  4026c8:	74 6f 20 
  4026cb:	48 89 43 10          	mov    %rax,0x10(%rbx)
  4026cf:	48 b8 77 72 69 74 65 	movabs $0x6f74206574697277,%rax
  4026d6:	20 74 6f 
  4026d9:	48 89 43 18          	mov    %rax,0x18(%rbx)
  4026dd:	48 b8 20 74 68 65 20 	movabs $0x7365722065687420,%rax
  4026e4:	72 65 73 
  4026e7:	48 89 43 20          	mov    %rax,0x20(%rbx)
  4026eb:	48 b8 75 6c 74 20 73 	movabs $0x7672657320746c75,%rax
  4026f2:	65 72 76 
  4026f5:	48 89 43 28          	mov    %rax,0x28(%rbx)
  4026f9:	66 c7 43 30 65 72    	movw   $0x7265,0x30(%rbx)
  4026ff:	c6 43 32 00          	movb   $0x0,0x32(%rbx)
  402703:	89 ef                	mov    %ebp,%edi
  402705:	e8 86 e5 ff ff       	callq  400c90 <close@plt>
  40270a:	b8 ff ff ff ff       	mov    $0xffffffff,%eax
  40270f:	e9 ee 00 00 00       	jmpq   402802 <submitr+0x587>
  402714:	48 b8 45 72 72 6f 72 	movabs $0x43203a726f727245,%rax
  40271b:	3a 20 43 
  40271e:	48 89 03             	mov    %rax,(%rbx)
  402721:	48 b8 6c 69 65 6e 74 	movabs $0x6e7520746e65696c,%rax
  402728:	20 75 6e 
  40272b:	48 89 43 08          	mov    %rax,0x8(%rbx)
  40272f:	48 b8 61 62 6c 65 20 	movabs $0x206f7420656c6261,%rax
  402736:	74 6f 20 
  402739:	48 89 43 10          	mov    %rax,0x10(%rbx)
  40273d:	48 b8 72 65 61 64 20 	movabs $0x7269662064616572,%rax
  402744:	66 69 72 
  402747:	48 89 43 18          	mov    %rax,0x18(%rbx)
  40274b:	48 b8 73 74 20 68 65 	movabs $0x6564616568207473,%rax
  402752:	61 64 65 
  402755:	48 89 43 20          	mov    %rax,0x20(%rbx)
  402759:	48 b8 72 20 66 72 6f 	movabs $0x72206d6f72662072,%rax
  402760:	6d 20 72 
  402763:	48 89 43 28          	mov    %rax,0x28(%rbx)
  402767:	48 b8 65 73 75 6c 74 	movabs $0x657320746c757365,%rax
  40276e:	20 73 65 
  402771:	48 89 43 30          	mov    %rax,0x30(%rbx)
  402775:	c7 43 38 72 76 65 72 	movl   $0x72657672,0x38(%rbx)
  40277c:	c6 43 3c 00          	movb   $0x0,0x3c(%rbx)
  402780:	89 ef                	mov    %ebp,%edi
  402782:	e8 09 e5 ff ff       	callq  400c90 <close@plt>
  402787:	b8 ff ff ff ff       	mov    $0xffffffff,%eax
  40278c:	eb 74                	jmp    402802 <submitr+0x587>
  40278e:	48 b8 45 72 72 6f 72 	movabs $0x43203a726f727245,%rax
  402795:	3a 20 43 
  402798:	48 89 03             	mov    %rax,(%rbx)
  40279b:	48 b8 6c 69 65 6e 74 	movabs $0x6e7520746e65696c,%rax
  4027a2:	20 75 6e 
  4027a5:	48 89 43 08          	mov    %rax,0x8(%rbx)
  4027a9:	48 b8 61 62 6c 65 20 	movabs $0x206f7420656c6261,%rax
  4027b0:	74 6f 20 
  4027b3:	48 89 43 10          	mov    %rax,0x10(%rbx)
  4027b7:	48 b8 72 65 61 64 20 	movabs $0x6165682064616572,%rax
  4027be:	68 65 61 
  4027c1:	48 89 43 18          	mov    %rax,0x18(%rbx)
  4027c5:	48 b8 64 65 72 73 20 	movabs $0x6f72662073726564,%rax
  4027cc:	66 72 6f 
  4027cf:	48 89 43 20          	mov    %rax,0x20(%rbx)
  4027d3:	48 b8 6d 20 74 68 65 	movabs $0x657220656874206d,%rax
  4027da:	20 72 65 
  4027dd:	48 89 43 28          	mov    %rax,0x28(%rbx)
  4027e1:	48 b8 73 75 6c 74 20 	movabs $0x72657320746c7573,%rax
  4027e8:	73 65 72 
  4027eb:	48 89 43 30          	mov    %rax,0x30(%rbx)
  4027ef:	c7 43 38 76 65 72 00 	movl   $0x726576,0x38(%rbx)
  4027f6:	89 ef                	mov    %ebp,%edi
  4027f8:	e8 93 e4 ff ff       	callq  400c90 <close@plt>
  4027fd:	b8 ff ff ff ff       	mov    $0xffffffff,%eax
  402802:	48 81 c4 58 a0 00 00 	add    $0xa058,%rsp
  402809:	5b                   	pop    %rbx
  40280a:	5d                   	pop    %rbp
  40280b:	41 5c                	pop    %r12
  40280d:	41 5d                	pop    %r13
  40280f:	41 5e                	pop    %r14
  402811:	41 5f                	pop    %r15
  402813:	c3                   	retq   
  402814:	85 c0                	test   %eax,%eax
  402816:	74 51                	je     402869 <submitr+0x5ee>
  402818:	48 8d b4 24 30 60 00 	lea    0x6030(%rsp),%rsi
  40281f:	00 
  402820:	48 8d bc 24 30 80 00 	lea    0x8030(%rsp),%rdi
  402827:	00 
  402828:	ba 00 20 00 00       	mov    $0x2000,%edx
  40282d:	e8 ca f9 ff ff       	callq  4021fc <rio_readlineb>
  402832:	48 85 c0             	test   %rax,%rax
  402835:	0f 8e 53 ff ff ff    	jle    40278e <submitr+0x513>
  40283b:	0f b6 94 24 30 60 00 	movzbl 0x6030(%rsp),%edx
  402842:	00 
  402843:	b8 0d 00 00 00       	mov    $0xd,%eax
  402848:	29 d0                	sub    %edx,%eax
  40284a:	75 c8                	jne    402814 <submitr+0x599>
  40284c:	0f b6 94 24 31 60 00 	movzbl 0x6031(%rsp),%edx
  402853:	00 
  402854:	b8 0a 00 00 00       	mov    $0xa,%eax
  402859:	29 d0                	sub    %edx,%eax
  40285b:	75 b7                	jne    402814 <submitr+0x599>
  40285d:	0f b6 84 24 32 60 00 	movzbl 0x6032(%rsp),%eax
  402864:	00 
  402865:	f7 d8                	neg    %eax
  402867:	eb ab                	jmp    402814 <submitr+0x599>
  402869:	48 8d b4 24 30 60 00 	lea    0x6030(%rsp),%rsi
  402870:	00 
  402871:	48 8d bc 24 30 80 00 	lea    0x8030(%rsp),%rdi
  402878:	00 
  402879:	ba 00 20 00 00       	mov    $0x2000,%edx
  40287e:	e8 79 f9 ff ff       	callq  4021fc <rio_readlineb>
  402883:	48 85 c0             	test   %rax,%rax
  402886:	7e 67                	jle    4028ef <submitr+0x674>
  402888:	8b 94 24 2c 20 00 00 	mov    0x202c(%rsp),%edx
  40288f:	81 fa c8 00 00 00    	cmp    $0xc8,%edx
  402895:	0f 85 d7 00 00 00    	jne    402972 <submitr+0x6f7>
  40289b:	48 8d b4 24 30 60 00 	lea    0x6030(%rsp),%rsi
  4028a2:	00 
  4028a3:	48 89 df             	mov    %rbx,%rdi
  4028a6:	e8 75 e3 ff ff       	callq  400c20 <strcpy@plt>
  4028ab:	89 ef                	mov    %ebp,%edi
  4028ad:	e8 de e3 ff ff       	callq  400c90 <close@plt>
  4028b2:	0f b6 03             	movzbl (%rbx),%eax
  4028b5:	ba 4f 00 00 00       	mov    $0x4f,%edx
  4028ba:	29 c2                	sub    %eax,%edx
  4028bc:	0f 85 da 00 00 00    	jne    40299c <submitr+0x721>
  4028c2:	0f b6 4b 01          	movzbl 0x1(%rbx),%ecx
  4028c6:	b8 4b 00 00 00       	mov    $0x4b,%eax
  4028cb:	29 c8                	sub    %ecx,%eax
  4028cd:	0f 85 cb 00 00 00    	jne    40299e <submitr+0x723>
  4028d3:	0f b6 4b 02          	movzbl 0x2(%rbx),%ecx
  4028d7:	b8 0a 00 00 00       	mov    $0xa,%eax
  4028dc:	29 c8                	sub    %ecx,%eax
  4028de:	0f 85 ba 00 00 00    	jne    40299e <submitr+0x723>
  4028e4:	0f b6 43 03          	movzbl 0x3(%rbx),%eax
  4028e8:	f7 d8                	neg    %eax
  4028ea:	e9 af 00 00 00       	jmpq   40299e <submitr+0x723>
  4028ef:	48 b8 45 72 72 6f 72 	movabs $0x43203a726f727245,%rax
  4028f6:	3a 20 43 
  4028f9:	48 89 03             	mov    %rax,(%rbx)
  4028fc:	48 b8 6c 69 65 6e 74 	movabs $0x6e7520746e65696c,%rax
  402903:	20 75 6e 
  402906:	48 89 43 08          	mov    %rax,0x8(%rbx)
  40290a:	48 b8 61 62 6c 65 20 	movabs $0x206f7420656c6261,%rax
  402911:	74 6f 20 
  402914:	48 89 43 10          	mov    %rax,0x10(%rbx)
  402918:	48 b8 72 65 61 64 20 	movabs $0x6174732064616572,%rax
  40291f:	73 74 61 
  402922:	48 89 43 18          	mov    %rax,0x18(%rbx)
  402926:	48 b8 74 75 73 20 6d 	movabs $0x7373656d20737574,%rax
  40292d:	65 73 73 
  402930:	48 89 43 20          	mov    %rax,0x20(%rbx)
  402934:	48 b8 61 67 65 20 66 	movabs $0x6d6f726620656761,%rax
  40293b:	72 6f 6d 
  40293e:	48 89 43 28          	mov    %rax,0x28(%rbx)
  402942:	48 b8 20 72 65 73 75 	movabs $0x20746c7573657220,%rax
  402949:	6c 74 20 
  40294c:	48 89 43 30          	mov    %rax,0x30(%rbx)
  402950:	c7 43 38 73 65 72 76 	movl   $0x76726573,0x38(%rbx)
  402957:	66 c7 43 3c 65 72    	movw   $0x7265,0x3c(%rbx)
  40295d:	c6 43 3e 00          	movb   $0x0,0x3e(%rbx)
  402961:	89 ef                	mov    %ebp,%edi
  402963:	e8 28 e3 ff ff       	callq  400c90 <close@plt>
  402968:	b8 ff ff ff ff       	mov    $0xffffffff,%eax
  40296d:	e9 90 fe ff ff       	jmpq   402802 <submitr+0x587>
  402972:	48 8d 4c 24 20       	lea    0x20(%rsp),%rcx
  402977:	48 8d 35 ca 0a 00 00 	lea    0xaca(%rip),%rsi        # 403448 <trans_char+0x78>
  40297e:	48 89 df             	mov    %rbx,%rdi
  402981:	b8 00 00 00 00       	mov    $0x0,%eax
  402986:	e8 15 e4 ff ff       	callq  400da0 <sprintf@plt>
  40298b:	89 ef                	mov    %ebp,%edi
  40298d:	e8 fe e2 ff ff       	callq  400c90 <close@plt>
  402992:	b8 ff ff ff ff       	mov    $0xffffffff,%eax
  402997:	e9 66 fe ff ff       	jmpq   402802 <submitr+0x587>
  40299c:	89 d0                	mov    %edx,%eax
  40299e:	f7 d8                	neg    %eax
  4029a0:	0f 84 5c fe ff ff    	je     402802 <submitr+0x587>
  4029a6:	b9 05 00 00 00       	mov    $0x5,%ecx
  4029ab:	48 8d 3d de 0a 00 00 	lea    0xade(%rip),%rdi        # 403490 <trans_char+0xc0>
  4029b2:	48 89 de             	mov    %rbx,%rsi
  4029b5:	f3 a6                	repz cmpsb %es:(%rdi),%ds:(%rsi)
  4029b7:	0f 97 c0             	seta   %al
  4029ba:	0f 92 c1             	setb   %cl
  4029bd:	29 c8                	sub    %ecx,%eax
  4029bf:	0f be c0             	movsbl %al,%eax
  4029c2:	85 c0                	test   %eax,%eax
  4029c4:	0f 84 38 fe ff ff    	je     402802 <submitr+0x587>
  4029ca:	85 d2                	test   %edx,%edx
  4029cc:	75 13                	jne    4029e1 <submitr+0x766>
  4029ce:	0f b6 43 01          	movzbl 0x1(%rbx),%eax
  4029d2:	ba 4b 00 00 00       	mov    $0x4b,%edx
  4029d7:	29 c2                	sub    %eax,%edx
  4029d9:	75 06                	jne    4029e1 <submitr+0x766>
  4029db:	0f b6 53 02          	movzbl 0x2(%rbx),%edx
  4029df:	f7 da                	neg    %edx
  4029e1:	89 d0                	mov    %edx,%eax
  4029e3:	f7 d8                	neg    %eax
  4029e5:	0f 84 17 fe ff ff    	je     402802 <submitr+0x587>
  4029eb:	b8 ff ff ff ff       	mov    $0xffffffff,%eax
  4029f0:	e9 0d fe ff ff       	jmpq   402802 <submitr+0x587>

00000000004029f5 <init_timeout>:
  4029f5:	85 ff                	test   %edi,%edi
  4029f7:	74 20                	je     402a19 <init_timeout+0x24>
  4029f9:	53                   	push   %rbx
  4029fa:	89 fb                	mov    %edi,%ebx
  4029fc:	85 ff                	test   %edi,%edi
  4029fe:	78 1b                	js     402a1b <init_timeout+0x26>
  402a00:	48 8d 35 05 f6 ff ff 	lea    -0x9fb(%rip),%rsi        # 40200c <sigalrm_handler>
  402a07:	bf 0e 00 00 00       	mov    $0xe,%edi
  402a0c:	e8 9f e2 ff ff       	callq  400cb0 <signal@plt>
  402a11:	89 df                	mov    %ebx,%edi
  402a13:	e8 68 e2 ff ff       	callq  400c80 <alarm@plt>
  402a18:	5b                   	pop    %rbx
  402a19:	f3 c3                	repz retq 
  402a1b:	bb 00 00 00 00       	mov    $0x0,%ebx
  402a20:	eb de                	jmp    402a00 <init_timeout+0xb>

0000000000402a22 <init_driver>:
  402a22:	41 54                	push   %r12
  402a24:	55                   	push   %rbp
  402a25:	53                   	push   %rbx
  402a26:	48 83 ec 10          	sub    $0x10,%rsp
  402a2a:	48 89 fd             	mov    %rdi,%rbp
  402a2d:	be 01 00 00 00       	mov    $0x1,%esi
  402a32:	bf 0d 00 00 00       	mov    $0xd,%edi
  402a37:	e8 74 e2 ff ff       	callq  400cb0 <signal@plt>
  402a3c:	be 01 00 00 00       	mov    $0x1,%esi
  402a41:	bf 1d 00 00 00       	mov    $0x1d,%edi
  402a46:	e8 65 e2 ff ff       	callq  400cb0 <signal@plt>
  402a4b:	be 01 00 00 00       	mov    $0x1,%esi
  402a50:	bf 1d 00 00 00       	mov    $0x1d,%edi
  402a55:	e8 56 e2 ff ff       	callq  400cb0 <signal@plt>
  402a5a:	ba 00 00 00 00       	mov    $0x0,%edx
  402a5f:	be 01 00 00 00       	mov    $0x1,%esi
  402a64:	bf 02 00 00 00       	mov    $0x2,%edi
  402a69:	e8 62 e3 ff ff       	callq  400dd0 <socket@plt>
  402a6e:	85 c0                	test   %eax,%eax
  402a70:	0f 88 80 00 00 00    	js     402af6 <init_driver+0xd4>
  402a76:	89 c3                	mov    %eax,%ebx
  402a78:	48 8d 3d 52 05 00 00 	lea    0x552(%rip),%rdi        # 402fd1 <_IO_stdin_used+0x291>
  402a7f:	e8 3c e2 ff ff       	callq  400cc0 <gethostbyname@plt>
  402a84:	48 85 c0             	test   %rax,%rax
  402a87:	0f 84 b5 00 00 00    	je     402b42 <init_driver+0x120>
  402a8d:	48 c7 04 24 00 00 00 	movq   $0x0,(%rsp)
  402a94:	00 
  402a95:	48 c7 44 24 08 00 00 	movq   $0x0,0x8(%rsp)
  402a9c:	00 00 
  402a9e:	66 c7 04 24 02 00    	movw   $0x2,(%rsp)
  402aa4:	48 8b 48 18          	mov    0x18(%rax),%rcx
  402aa8:	48 63 50 14          	movslq 0x14(%rax),%rdx
  402aac:	48 8d 74 24 04       	lea    0x4(%rsp),%rsi
  402ab1:	48 8b 39             	mov    (%rcx),%rdi
  402ab4:	e8 97 e2 ff ff       	callq  400d50 <bcopy@plt>
  402ab9:	66 c7 44 24 02 3c 9a 	movw   $0x9a3c,0x2(%rsp)
  402ac0:	ba 10 00 00 00       	mov    $0x10,%edx
  402ac5:	48 89 e6             	mov    %rsp,%rsi
  402ac8:	89 df                	mov    %ebx,%edi
  402aca:	e8 f1 e2 ff ff       	callq  400dc0 <connect@plt>
  402acf:	85 c0                	test   %eax,%eax
  402ad1:	0f 88 d3 00 00 00    	js     402baa <init_driver+0x188>
  402ad7:	89 df                	mov    %ebx,%edi
  402ad9:	e8 b2 e1 ff ff       	callq  400c90 <close@plt>
  402ade:	66 c7 45 00 4f 4b    	movw   $0x4b4f,0x0(%rbp)
  402ae4:	c6 45 02 00          	movb   $0x0,0x2(%rbp)
  402ae8:	b8 00 00 00 00       	mov    $0x0,%eax
  402aed:	48 83 c4 10          	add    $0x10,%rsp
  402af1:	5b                   	pop    %rbx
  402af2:	5d                   	pop    %rbp
  402af3:	41 5c                	pop    %r12
  402af5:	c3                   	retq   
  402af6:	48 b8 45 72 72 6f 72 	movabs $0x43203a726f727245,%rax
  402afd:	3a 20 43 
  402b00:	48 89 45 00          	mov    %rax,0x0(%rbp)
  402b04:	48 b8 6c 69 65 6e 74 	movabs $0x6e7520746e65696c,%rax
  402b0b:	20 75 6e 
  402b0e:	48 89 45 08          	mov    %rax,0x8(%rbp)
  402b12:	48 b8 61 62 6c 65 20 	movabs $0x206f7420656c6261,%rax
  402b19:	74 6f 20 
  402b1c:	48 89 45 10          	mov    %rax,0x10(%rbp)
  402b20:	48 b8 63 72 65 61 74 	movabs $0x7320657461657263,%rax
  402b27:	65 20 73 
  402b2a:	48 89 45 18          	mov    %rax,0x18(%rbp)
  402b2e:	c7 45 20 6f 63 6b 65 	movl   $0x656b636f,0x20(%rbp)
  402b35:	66 c7 45 24 74 00    	movw   $0x74,0x24(%rbp)
  402b3b:	b8 ff ff ff ff       	mov    $0xffffffff,%eax
  402b40:	eb ab                	jmp    402aed <init_driver+0xcb>
  402b42:	48 b8 45 72 72 6f 72 	movabs $0x44203a726f727245,%rax
  402b49:	3a 20 44 
  402b4c:	48 89 45 00          	mov    %rax,0x0(%rbp)
  402b50:	48 b8 4e 53 20 69 73 	movabs $0x6e7520736920534e,%rax
  402b57:	20 75 6e 
  402b5a:	48 89 45 08          	mov    %rax,0x8(%rbp)
  402b5e:	48 b8 61 62 6c 65 20 	movabs $0x206f7420656c6261,%rax
  402b65:	74 6f 20 
  402b68:	48 89 45 10          	mov    %rax,0x10(%rbp)
  402b6c:	48 b8 72 65 73 6f 6c 	movabs $0x2065766c6f736572,%rax
  402b73:	76 65 20 
  402b76:	48 89 45 18          	mov    %rax,0x18(%rbp)
  402b7a:	48 b8 73 65 72 76 65 	movabs $0x6120726576726573,%rax
  402b81:	72 20 61 
  402b84:	48 89 45 20          	mov    %rax,0x20(%rbp)
  402b88:	c7 45 28 64 64 72 65 	movl   $0x65726464,0x28(%rbp)
  402b8f:	66 c7 45 2c 73 73    	movw   $0x7373,0x2c(%rbp)
  402b95:	c6 45 2e 00          	movb   $0x0,0x2e(%rbp)
  402b99:	89 df                	mov    %ebx,%edi
  402b9b:	e8 f0 e0 ff ff       	callq  400c90 <close@plt>
  402ba0:	b8 ff ff ff ff       	mov    $0xffffffff,%eax
  402ba5:	e9 43 ff ff ff       	jmpq   402aed <init_driver+0xcb>
  402baa:	48 b8 45 72 72 6f 72 	movabs $0x55203a726f727245,%rax
  402bb1:	3a 20 55 
  402bb4:	48 89 45 00          	mov    %rax,0x0(%rbp)
  402bb8:	48 b8 6e 61 62 6c 65 	movabs $0x6f7420656c62616e,%rax
  402bbf:	20 74 6f 
  402bc2:	48 89 45 08          	mov    %rax,0x8(%rbp)
  402bc6:	48 b8 20 63 6f 6e 6e 	movabs $0x7463656e6e6f6320,%rax
  402bcd:	65 63 74 
  402bd0:	48 89 45 10          	mov    %rax,0x10(%rbp)
  402bd4:	48 b8 20 74 6f 20 73 	movabs $0x76726573206f7420,%rax
  402bdb:	65 72 76 
  402bde:	48 89 45 18          	mov    %rax,0x18(%rbp)
  402be2:	66 c7 45 20 65 72    	movw   $0x7265,0x20(%rbp)
  402be8:	c6 45 22 00          	movb   $0x0,0x22(%rbp)
  402bec:	89 df                	mov    %ebx,%edi
  402bee:	e8 9d e0 ff ff       	callq  400c90 <close@plt>
  402bf3:	b8 ff ff ff ff       	mov    $0xffffffff,%eax
  402bf8:	e9 f0 fe ff ff       	jmpq   402aed <init_driver+0xcb>

0000000000402bfd <driver_post>:
  402bfd:	53                   	push   %rbx
  402bfe:	4c 89 cb             	mov    %r9,%rbx
  402c01:	45 85 c0             	test   %r8d,%r8d
  402c04:	75 18                	jne    402c1e <driver_post+0x21>
  402c06:	48 85 ff             	test   %rdi,%rdi
  402c09:	74 05                	je     402c10 <driver_post+0x13>
  402c0b:	80 3f 00             	cmpb   $0x0,(%rdi)
  402c0e:	75 32                	jne    402c42 <driver_post+0x45>
  402c10:	66 c7 03 4f 4b       	movw   $0x4b4f,(%rbx)
  402c15:	c6 43 02 00          	movb   $0x0,0x2(%rbx)
  402c19:	44 89 c0             	mov    %r8d,%eax
  402c1c:	5b                   	pop    %rbx
  402c1d:	c3                   	retq   
  402c1e:	48 89 ce             	mov    %rcx,%rsi
  402c21:	48 8d 3d 6d 08 00 00 	lea    0x86d(%rip),%rdi        # 403495 <trans_char+0xc5>
  402c28:	b8 00 00 00 00       	mov    $0x0,%eax
  402c2d:	e8 2e e0 ff ff       	callq  400c60 <printf@plt>
  402c32:	66 c7 03 4f 4b       	movw   $0x4b4f,(%rbx)
  402c37:	c6 43 02 00          	movb   $0x0,0x2(%rbx)
  402c3b:	b8 00 00 00 00       	mov    $0x0,%eax
  402c40:	eb da                	jmp    402c1c <driver_post+0x1f>
  402c42:	48 83 ec 08          	sub    $0x8,%rsp
  402c46:	41 51                	push   %r9
  402c48:	49 89 c9             	mov    %rcx,%r9
  402c4b:	49 89 d0             	mov    %rdx,%r8
  402c4e:	48 89 f9             	mov    %rdi,%rcx
  402c51:	48 89 f2             	mov    %rsi,%rdx
  402c54:	be 9a 3c 00 00       	mov    $0x3c9a,%esi
  402c59:	48 8d 3d 71 03 00 00 	lea    0x371(%rip),%rdi        # 402fd1 <_IO_stdin_used+0x291>
  402c60:	e8 16 f6 ff ff       	callq  40227b <submitr>
  402c65:	48 83 c4 10          	add    $0x10,%rsp
  402c69:	eb b1                	jmp    402c1c <driver_post+0x1f>

0000000000402c6b <check>:
  402c6b:	89 f8                	mov    %edi,%eax
  402c6d:	c1 e8 1c             	shr    $0x1c,%eax
  402c70:	85 c0                	test   %eax,%eax
  402c72:	74 1d                	je     402c91 <check+0x26>
  402c74:	b9 00 00 00 00       	mov    $0x0,%ecx
  402c79:	83 f9 1f             	cmp    $0x1f,%ecx
  402c7c:	7f 0d                	jg     402c8b <check+0x20>
  402c7e:	89 f8                	mov    %edi,%eax
  402c80:	d3 e8                	shr    %cl,%eax
  402c82:	3c 0a                	cmp    $0xa,%al
  402c84:	74 11                	je     402c97 <check+0x2c>
  402c86:	83 c1 08             	add    $0x8,%ecx
  402c89:	eb ee                	jmp    402c79 <check+0xe>
  402c8b:	b8 01 00 00 00       	mov    $0x1,%eax
  402c90:	c3                   	retq   
  402c91:	b8 00 00 00 00       	mov    $0x0,%eax
  402c96:	c3                   	retq   
  402c97:	b8 00 00 00 00       	mov    $0x0,%eax
  402c9c:	c3                   	retq   

0000000000402c9d <gencookie>:
  402c9d:	53                   	push   %rbx
  402c9e:	83 c7 01             	add    $0x1,%edi
  402ca1:	e8 5a df ff ff       	callq  400c00 <srandom@plt>
  402ca6:	e8 65 e0 ff ff       	callq  400d10 <random@plt>
  402cab:	89 c3                	mov    %eax,%ebx
  402cad:	89 c7                	mov    %eax,%edi
  402caf:	e8 b7 ff ff ff       	callq  402c6b <check>
  402cb4:	85 c0                	test   %eax,%eax
  402cb6:	74 ee                	je     402ca6 <gencookie+0x9>
  402cb8:	89 d8                	mov    %ebx,%eax
  402cba:	5b                   	pop    %rbx
  402cbb:	c3                   	retq   
  402cbc:	0f 1f 40 00          	nopl   0x0(%rax)

0000000000402cc0 <__libc_csu_init>:
  402cc0:	41 57                	push   %r15
  402cc2:	41 56                	push   %r14
  402cc4:	41 89 ff             	mov    %edi,%r15d
  402cc7:	41 55                	push   %r13
  402cc9:	41 54                	push   %r12
  402ccb:	4c 8d 25 36 11 20 00 	lea    0x201136(%rip),%r12        # 603e08 <__frame_dummy_init_array_entry>
  402cd2:	55                   	push   %rbp
  402cd3:	48 8d 2d 36 11 20 00 	lea    0x201136(%rip),%rbp        # 603e10 <__init_array_end>
  402cda:	53                   	push   %rbx
  402cdb:	49 89 f6             	mov    %rsi,%r14
  402cde:	49 89 d5             	mov    %rdx,%r13
  402ce1:	4c 29 e5             	sub    %r12,%rbp
  402ce4:	48 83 ec 08          	sub    $0x8,%rsp
  402ce8:	48 c1 fd 03          	sar    $0x3,%rbp
  402cec:	e8 bf de ff ff       	callq  400bb0 <_init>
  402cf1:	48 85 ed             	test   %rbp,%rbp
  402cf4:	74 20                	je     402d16 <__libc_csu_init+0x56>
  402cf6:	31 db                	xor    %ebx,%ebx
  402cf8:	0f 1f 84 00 00 00 00 	nopl   0x0(%rax,%rax,1)
  402cff:	00 
  402d00:	4c 89 ea             	mov    %r13,%rdx
  402d03:	4c 89 f6             	mov    %r14,%rsi
  402d06:	44 89 ff             	mov    %r15d,%edi
  402d09:	41 ff 14 dc          	callq  *(%r12,%rbx,8)
  402d0d:	48 83 c3 01          	add    $0x1,%rbx
  402d11:	48 39 dd             	cmp    %rbx,%rbp
  402d14:	75 ea                	jne    402d00 <__libc_csu_init+0x40>
  402d16:	48 83 c4 08          	add    $0x8,%rsp
  402d1a:	5b                   	pop    %rbx
  402d1b:	5d                   	pop    %rbp
  402d1c:	41 5c                	pop    %r12
  402d1e:	41 5d                	pop    %r13
  402d20:	41 5e                	pop    %r14
  402d22:	41 5f                	pop    %r15
  402d24:	c3                   	retq   
  402d25:	90                   	nop
  402d26:	66 2e 0f 1f 84 00 00 	nopw   %cs:0x0(%rax,%rax,1)
  402d2d:	00 00 00 

0000000000402d30 <__libc_csu_fini>:
  402d30:	f3 c3                	repz retq 

Disassembly of section .fini:

0000000000402d34 <_fini>:
  402d34:	48 83 ec 08          	sub    $0x8,%rsp
  402d38:	48 83 c4 08          	add    $0x8,%rsp
  402d3c:	c3                   	retq   
