
ctarget:     file format elf64-x86-64


Disassembly of section .init:

0000000000400bb0 <_init>:
  400bb0:	48 83 ec 08          	sub    $0x8,%rsp
  400bb4:	48 8b 05 3d 34 20 00 	mov    0x20343d(%rip),%rax        # 603ff8 <_DYNAMIC+0x1d8>
  400bbb:	48 85 c0             	test   %rax,%rax
  400bbe:	74 02                	je     400bc2 <_init+0x12>
  400bc0:	ff d0                	callq  *%rax
  400bc2:	48 83 c4 08          	add    $0x8,%rsp
  400bc6:	c3                   	retq   

Disassembly of section .plt:

0000000000400bd0 <strcasecmp@plt-0x10>:
  400bd0:	ff 35 32 34 20 00    	pushq  0x203432(%rip)        # 604008 <_GLOBAL_OFFSET_TABLE_+0x8>
  400bd6:	ff 25 34 34 20 00    	jmpq   *0x203434(%rip)        # 604010 <_GLOBAL_OFFSET_TABLE_+0x10>
  400bdc:	0f 1f 40 00          	nopl   0x0(%rax)

0000000000400be0 <strcasecmp@plt>:
  400be0:	ff 25 32 34 20 00    	jmpq   *0x203432(%rip)        # 604018 <_GLOBAL_OFFSET_TABLE_+0x18>
  400be6:	68 00 00 00 00       	pushq  $0x0
  400beb:	e9 e0 ff ff ff       	jmpq   400bd0 <_init+0x20>

0000000000400bf0 <__errno_location@plt>:
  400bf0:	ff 25 2a 34 20 00    	jmpq   *0x20342a(%rip)        # 604020 <_GLOBAL_OFFSET_TABLE_+0x20>
  400bf6:	68 01 00 00 00       	pushq  $0x1
  400bfb:	e9 d0 ff ff ff       	jmpq   400bd0 <_init+0x20>

0000000000400c00 <srandom@plt>:
  400c00:	ff 25 22 34 20 00    	jmpq   *0x203422(%rip)        # 604028 <_GLOBAL_OFFSET_TABLE_+0x28>
  400c06:	68 02 00 00 00       	pushq  $0x2
  400c0b:	e9 c0 ff ff ff       	jmpq   400bd0 <_init+0x20>

0000000000400c10 <strncmp@plt>:
  400c10:	ff 25 1a 34 20 00    	jmpq   *0x20341a(%rip)        # 604030 <_GLOBAL_OFFSET_TABLE_+0x30>
  400c16:	68 03 00 00 00       	pushq  $0x3
  400c1b:	e9 b0 ff ff ff       	jmpq   400bd0 <_init+0x20>

0000000000400c20 <strcpy@plt>:
  400c20:	ff 25 12 34 20 00    	jmpq   *0x203412(%rip)        # 604038 <_GLOBAL_OFFSET_TABLE_+0x38>
  400c26:	68 04 00 00 00       	pushq  $0x4
  400c2b:	e9 a0 ff ff ff       	jmpq   400bd0 <_init+0x20>

0000000000400c30 <puts@plt>:
  400c30:	ff 25 0a 34 20 00    	jmpq   *0x20340a(%rip)        # 604040 <_GLOBAL_OFFSET_TABLE_+0x40>
  400c36:	68 05 00 00 00       	pushq  $0x5
  400c3b:	e9 90 ff ff ff       	jmpq   400bd0 <_init+0x20>

0000000000400c40 <write@plt>:
  400c40:	ff 25 02 34 20 00    	jmpq   *0x203402(%rip)        # 604048 <_GLOBAL_OFFSET_TABLE_+0x48>
  400c46:	68 06 00 00 00       	pushq  $0x6
  400c4b:	e9 80 ff ff ff       	jmpq   400bd0 <_init+0x20>

0000000000400c50 <mmap@plt>:
  400c50:	ff 25 fa 33 20 00    	jmpq   *0x2033fa(%rip)        # 604050 <_GLOBAL_OFFSET_TABLE_+0x50>
  400c56:	68 07 00 00 00       	pushq  $0x7
  400c5b:	e9 70 ff ff ff       	jmpq   400bd0 <_init+0x20>

0000000000400c60 <printf@plt>:
  400c60:	ff 25 f2 33 20 00    	jmpq   *0x2033f2(%rip)        # 604058 <_GLOBAL_OFFSET_TABLE_+0x58>
  400c66:	68 08 00 00 00       	pushq  $0x8
  400c6b:	e9 60 ff ff ff       	jmpq   400bd0 <_init+0x20>

0000000000400c70 <memset@plt>:
  400c70:	ff 25 ea 33 20 00    	jmpq   *0x2033ea(%rip)        # 604060 <_GLOBAL_OFFSET_TABLE_+0x60>
  400c76:	68 09 00 00 00       	pushq  $0x9
  400c7b:	e9 50 ff ff ff       	jmpq   400bd0 <_init+0x20>

0000000000400c80 <alarm@plt>:
  400c80:	ff 25 e2 33 20 00    	jmpq   *0x2033e2(%rip)        # 604068 <_GLOBAL_OFFSET_TABLE_+0x68>
  400c86:	68 0a 00 00 00       	pushq  $0xa
  400c8b:	e9 40 ff ff ff       	jmpq   400bd0 <_init+0x20>

0000000000400c90 <close@plt>:
  400c90:	ff 25 da 33 20 00    	jmpq   *0x2033da(%rip)        # 604070 <_GLOBAL_OFFSET_TABLE_+0x70>
  400c96:	68 0b 00 00 00       	pushq  $0xb
  400c9b:	e9 30 ff ff ff       	jmpq   400bd0 <_init+0x20>

0000000000400ca0 <read@plt>:
  400ca0:	ff 25 d2 33 20 00    	jmpq   *0x2033d2(%rip)        # 604078 <_GLOBAL_OFFSET_TABLE_+0x78>
  400ca6:	68 0c 00 00 00       	pushq  $0xc
  400cab:	e9 20 ff ff ff       	jmpq   400bd0 <_init+0x20>

0000000000400cb0 <signal@plt>:
  400cb0:	ff 25 ca 33 20 00    	jmpq   *0x2033ca(%rip)        # 604080 <_GLOBAL_OFFSET_TABLE_+0x80>
  400cb6:	68 0d 00 00 00       	pushq  $0xd
  400cbb:	e9 10 ff ff ff       	jmpq   400bd0 <_init+0x20>

0000000000400cc0 <gethostbyname@plt>:
  400cc0:	ff 25 c2 33 20 00    	jmpq   *0x2033c2(%rip)        # 604088 <_GLOBAL_OFFSET_TABLE_+0x88>
  400cc6:	68 0e 00 00 00       	pushq  $0xe
  400ccb:	e9 00 ff ff ff       	jmpq   400bd0 <_init+0x20>

0000000000400cd0 <fprintf@plt>:
  400cd0:	ff 25 ba 33 20 00    	jmpq   *0x2033ba(%rip)        # 604090 <_GLOBAL_OFFSET_TABLE_+0x90>
  400cd6:	68 0f 00 00 00       	pushq  $0xf
  400cdb:	e9 f0 fe ff ff       	jmpq   400bd0 <_init+0x20>

0000000000400ce0 <strtol@plt>:
  400ce0:	ff 25 b2 33 20 00    	jmpq   *0x2033b2(%rip)        # 604098 <_GLOBAL_OFFSET_TABLE_+0x98>
  400ce6:	68 10 00 00 00       	pushq  $0x10
  400ceb:	e9 e0 fe ff ff       	jmpq   400bd0 <_init+0x20>

0000000000400cf0 <memcpy@plt>:
  400cf0:	ff 25 aa 33 20 00    	jmpq   *0x2033aa(%rip)        # 6040a0 <_GLOBAL_OFFSET_TABLE_+0xa0>
  400cf6:	68 11 00 00 00       	pushq  $0x11
  400cfb:	e9 d0 fe ff ff       	jmpq   400bd0 <_init+0x20>

0000000000400d00 <time@plt>:
  400d00:	ff 25 a2 33 20 00    	jmpq   *0x2033a2(%rip)        # 6040a8 <_GLOBAL_OFFSET_TABLE_+0xa8>
  400d06:	68 12 00 00 00       	pushq  $0x12
  400d0b:	e9 c0 fe ff ff       	jmpq   400bd0 <_init+0x20>

0000000000400d10 <random@plt>:
  400d10:	ff 25 9a 33 20 00    	jmpq   *0x20339a(%rip)        # 6040b0 <_GLOBAL_OFFSET_TABLE_+0xb0>
  400d16:	68 13 00 00 00       	pushq  $0x13
  400d1b:	e9 b0 fe ff ff       	jmpq   400bd0 <_init+0x20>

0000000000400d20 <_IO_getc@plt>:
  400d20:	ff 25 92 33 20 00    	jmpq   *0x203392(%rip)        # 6040b8 <_GLOBAL_OFFSET_TABLE_+0xb8>
  400d26:	68 14 00 00 00       	pushq  $0x14
  400d2b:	e9 a0 fe ff ff       	jmpq   400bd0 <_init+0x20>

0000000000400d30 <__isoc99_sscanf@plt>:
  400d30:	ff 25 8a 33 20 00    	jmpq   *0x20338a(%rip)        # 6040c0 <_GLOBAL_OFFSET_TABLE_+0xc0>
  400d36:	68 15 00 00 00       	pushq  $0x15
  400d3b:	e9 90 fe ff ff       	jmpq   400bd0 <_init+0x20>

0000000000400d40 <munmap@plt>:
  400d40:	ff 25 82 33 20 00    	jmpq   *0x203382(%rip)        # 6040c8 <_GLOBAL_OFFSET_TABLE_+0xc8>
  400d46:	68 16 00 00 00       	pushq  $0x16
  400d4b:	e9 80 fe ff ff       	jmpq   400bd0 <_init+0x20>

0000000000400d50 <bcopy@plt>:
  400d50:	ff 25 7a 33 20 00    	jmpq   *0x20337a(%rip)        # 6040d0 <_GLOBAL_OFFSET_TABLE_+0xd0>
  400d56:	68 17 00 00 00       	pushq  $0x17
  400d5b:	e9 70 fe ff ff       	jmpq   400bd0 <_init+0x20>

0000000000400d60 <fopen@plt>:
  400d60:	ff 25 72 33 20 00    	jmpq   *0x203372(%rip)        # 6040d8 <_GLOBAL_OFFSET_TABLE_+0xd8>
  400d66:	68 18 00 00 00       	pushq  $0x18
  400d6b:	e9 60 fe ff ff       	jmpq   400bd0 <_init+0x20>

0000000000400d70 <getopt@plt>:
  400d70:	ff 25 6a 33 20 00    	jmpq   *0x20336a(%rip)        # 6040e0 <_GLOBAL_OFFSET_TABLE_+0xe0>
  400d76:	68 19 00 00 00       	pushq  $0x19
  400d7b:	e9 50 fe ff ff       	jmpq   400bd0 <_init+0x20>

0000000000400d80 <strtoul@plt>:
  400d80:	ff 25 62 33 20 00    	jmpq   *0x203362(%rip)        # 6040e8 <_GLOBAL_OFFSET_TABLE_+0xe8>
  400d86:	68 1a 00 00 00       	pushq  $0x1a
  400d8b:	e9 40 fe ff ff       	jmpq   400bd0 <_init+0x20>

0000000000400d90 <gethostname@plt>:
  400d90:	ff 25 5a 33 20 00    	jmpq   *0x20335a(%rip)        # 6040f0 <_GLOBAL_OFFSET_TABLE_+0xf0>
  400d96:	68 1b 00 00 00       	pushq  $0x1b
  400d9b:	e9 30 fe ff ff       	jmpq   400bd0 <_init+0x20>

0000000000400da0 <sprintf@plt>:
  400da0:	ff 25 52 33 20 00    	jmpq   *0x203352(%rip)        # 6040f8 <_GLOBAL_OFFSET_TABLE_+0xf8>
  400da6:	68 1c 00 00 00       	pushq  $0x1c
  400dab:	e9 20 fe ff ff       	jmpq   400bd0 <_init+0x20>

0000000000400db0 <exit@plt>:
  400db0:	ff 25 4a 33 20 00    	jmpq   *0x20334a(%rip)        # 604100 <_GLOBAL_OFFSET_TABLE_+0x100>
  400db6:	68 1d 00 00 00       	pushq  $0x1d
  400dbb:	e9 10 fe ff ff       	jmpq   400bd0 <_init+0x20>

0000000000400dc0 <connect@plt>:
  400dc0:	ff 25 42 33 20 00    	jmpq   *0x203342(%rip)        # 604108 <_GLOBAL_OFFSET_TABLE_+0x108>
  400dc6:	68 1e 00 00 00       	pushq  $0x1e
  400dcb:	e9 00 fe ff ff       	jmpq   400bd0 <_init+0x20>

0000000000400dd0 <socket@plt>:
  400dd0:	ff 25 3a 33 20 00    	jmpq   *0x20333a(%rip)        # 604110 <_GLOBAL_OFFSET_TABLE_+0x110>
  400dd6:	68 1f 00 00 00       	pushq  $0x1f
  400ddb:	e9 f0 fd ff ff       	jmpq   400bd0 <_init+0x20>

Disassembly of section .text:

0000000000400de0 <_start>:
  400de0:	31 ed                	xor    %ebp,%ebp
  400de2:	49 89 d1             	mov    %rdx,%r9
  400de5:	5e                   	pop    %rsi
  400de6:	48 89 e2             	mov    %rsp,%rdx
  400de9:	48 83 e4 f0          	and    $0xfffffffffffffff0,%rsp
  400ded:	50                   	push   %rax
  400dee:	54                   	push   %rsp
  400def:	49 c7 c0 a0 2c 40 00 	mov    $0x402ca0,%r8
  400df6:	48 c7 c1 30 2c 40 00 	mov    $0x402c30,%rcx
  400dfd:	48 c7 c7 8d 10 40 00 	mov    $0x40108d,%rdi
  400e04:	ff 15 e6 31 20 00    	callq  *0x2031e6(%rip)        # 603ff0 <_DYNAMIC+0x1d0>
  400e0a:	f4                   	hlt    
  400e0b:	0f 1f 44 00 00       	nopl   0x0(%rax,%rax,1)

0000000000400e10 <deregister_tm_clones>:
  400e10:	b8 97 44 60 00       	mov    $0x604497,%eax
  400e15:	55                   	push   %rbp
  400e16:	48 2d 90 44 60 00    	sub    $0x604490,%rax
  400e1c:	48 83 f8 0e          	cmp    $0xe,%rax
  400e20:	48 89 e5             	mov    %rsp,%rbp
  400e23:	76 1b                	jbe    400e40 <deregister_tm_clones+0x30>
  400e25:	b8 00 00 00 00       	mov    $0x0,%eax
  400e2a:	48 85 c0             	test   %rax,%rax
  400e2d:	74 11                	je     400e40 <deregister_tm_clones+0x30>
  400e2f:	5d                   	pop    %rbp
  400e30:	bf 90 44 60 00       	mov    $0x604490,%edi
  400e35:	ff e0                	jmpq   *%rax
  400e37:	66 0f 1f 84 00 00 00 	nopw   0x0(%rax,%rax,1)
  400e3e:	00 00 
  400e40:	5d                   	pop    %rbp
  400e41:	c3                   	retq   
  400e42:	0f 1f 40 00          	nopl   0x0(%rax)
  400e46:	66 2e 0f 1f 84 00 00 	nopw   %cs:0x0(%rax,%rax,1)
  400e4d:	00 00 00 

0000000000400e50 <register_tm_clones>:
  400e50:	be 90 44 60 00       	mov    $0x604490,%esi
  400e55:	55                   	push   %rbp
  400e56:	48 81 ee 90 44 60 00 	sub    $0x604490,%rsi
  400e5d:	48 c1 fe 03          	sar    $0x3,%rsi
  400e61:	48 89 e5             	mov    %rsp,%rbp
  400e64:	48 89 f0             	mov    %rsi,%rax
  400e67:	48 c1 e8 3f          	shr    $0x3f,%rax
  400e6b:	48 01 c6             	add    %rax,%rsi
  400e6e:	48 d1 fe             	sar    %rsi
  400e71:	74 15                	je     400e88 <register_tm_clones+0x38>
  400e73:	b8 00 00 00 00       	mov    $0x0,%eax
  400e78:	48 85 c0             	test   %rax,%rax
  400e7b:	74 0b                	je     400e88 <register_tm_clones+0x38>
  400e7d:	5d                   	pop    %rbp
  400e7e:	bf 90 44 60 00       	mov    $0x604490,%edi
  400e83:	ff e0                	jmpq   *%rax
  400e85:	0f 1f 00             	nopl   (%rax)
  400e88:	5d                   	pop    %rbp
  400e89:	c3                   	retq   
  400e8a:	66 0f 1f 44 00 00    	nopw   0x0(%rax,%rax,1)

0000000000400e90 <__do_global_dtors_aux>:
  400e90:	80 3d 31 36 20 00 00 	cmpb   $0x0,0x203631(%rip)        # 6044c8 <completed.6963>
  400e97:	75 11                	jne    400eaa <__do_global_dtors_aux+0x1a>
  400e99:	55                   	push   %rbp
  400e9a:	48 89 e5             	mov    %rsp,%rbp
  400e9d:	e8 6e ff ff ff       	callq  400e10 <deregister_tm_clones>
  400ea2:	5d                   	pop    %rbp
  400ea3:	c6 05 1e 36 20 00 01 	movb   $0x1,0x20361e(%rip)        # 6044c8 <completed.6963>
  400eaa:	f3 c3                	repz retq 
  400eac:	0f 1f 40 00          	nopl   0x0(%rax)

0000000000400eb0 <frame_dummy>:
  400eb0:	bf 18 3e 60 00       	mov    $0x603e18,%edi
  400eb5:	48 83 3f 00          	cmpq   $0x0,(%rdi)
  400eb9:	75 05                	jne    400ec0 <frame_dummy+0x10>
  400ebb:	eb 93                	jmp    400e50 <register_tm_clones>
  400ebd:	0f 1f 00             	nopl   (%rax)
  400ec0:	b8 00 00 00 00       	mov    $0x0,%eax
  400ec5:	48 85 c0             	test   %rax,%rax
  400ec8:	74 f1                	je     400ebb <frame_dummy+0xb>
  400eca:	55                   	push   %rbp
  400ecb:	48 89 e5             	mov    %rsp,%rbp
  400ece:	ff d0                	callq  *%rax
  400ed0:	5d                   	pop    %rbp
  400ed1:	e9 7a ff ff ff       	jmpq   400e50 <register_tm_clones>

0000000000400ed6 <usage>:
  400ed6:	48 83 ec 08          	sub    $0x8,%rsp
  400eda:	48 89 fe             	mov    %rdi,%rsi
  400edd:	83 3d 24 36 20 00 00 	cmpl   $0x0,0x203624(%rip)        # 604508 <is_checker>
  400ee4:	74 4b                	je     400f31 <usage+0x5b>
  400ee6:	48 8d 3d cb 1d 00 00 	lea    0x1dcb(%rip),%rdi        # 402cb8 <_IO_stdin_used+0x8>
  400eed:	b8 00 00 00 00       	mov    $0x0,%eax
  400ef2:	e8 69 fd ff ff       	callq  400c60 <printf@plt>
  400ef7:	48 8d 3d f2 1d 00 00 	lea    0x1df2(%rip),%rdi        # 402cf0 <_IO_stdin_used+0x40>
  400efe:	e8 2d fd ff ff       	callq  400c30 <puts@plt>
  400f03:	48 8d 3d 1e 1f 00 00 	lea    0x1f1e(%rip),%rdi        # 402e28 <_IO_stdin_used+0x178>
  400f0a:	e8 21 fd ff ff       	callq  400c30 <puts@plt>
  400f0f:	48 8d 3d 02 1e 00 00 	lea    0x1e02(%rip),%rdi        # 402d18 <_IO_stdin_used+0x68>
  400f16:	e8 15 fd ff ff       	callq  400c30 <puts@plt>
  400f1b:	48 8d 3d 20 1f 00 00 	lea    0x1f20(%rip),%rdi        # 402e42 <_IO_stdin_used+0x192>
  400f22:	e8 09 fd ff ff       	callq  400c30 <puts@plt>
  400f27:	bf 00 00 00 00       	mov    $0x0,%edi
  400f2c:	e8 7f fe ff ff       	callq  400db0 <exit@plt>
  400f31:	48 8d 3d 26 1f 00 00 	lea    0x1f26(%rip),%rdi        # 402e5e <_IO_stdin_used+0x1ae>
  400f38:	b8 00 00 00 00       	mov    $0x0,%eax
  400f3d:	e8 1e fd ff ff       	callq  400c60 <printf@plt>
  400f42:	48 8d 3d f7 1d 00 00 	lea    0x1df7(%rip),%rdi        # 402d40 <_IO_stdin_used+0x90>
  400f49:	e8 e2 fc ff ff       	callq  400c30 <puts@plt>
  400f4e:	48 8d 3d 13 1e 00 00 	lea    0x1e13(%rip),%rdi        # 402d68 <_IO_stdin_used+0xb8>
  400f55:	e8 d6 fc ff ff       	callq  400c30 <puts@plt>
  400f5a:	48 8d 3d 1b 1f 00 00 	lea    0x1f1b(%rip),%rdi        # 402e7c <_IO_stdin_used+0x1cc>
  400f61:	e8 ca fc ff ff       	callq  400c30 <puts@plt>
  400f66:	eb bf                	jmp    400f27 <usage+0x51>

0000000000400f68 <initialize_target>:
  400f68:	55                   	push   %rbp
  400f69:	53                   	push   %rbx
  400f6a:	48 81 ec 08 21 00 00 	sub    $0x2108,%rsp
  400f71:	89 f5                	mov    %esi,%ebp
  400f73:	89 3d 7f 35 20 00    	mov    %edi,0x20357f(%rip)        # 6044f8 <check_level>
  400f79:	8b 3d b1 31 20 00    	mov    0x2031b1(%rip),%edi        # 604130 <target_id>
  400f7f:	e8 8d 1c 00 00       	callq  402c11 <gencookie>
  400f84:	89 05 7a 35 20 00    	mov    %eax,0x20357a(%rip)        # 604504 <cookie>
  400f8a:	89 c7                	mov    %eax,%edi
  400f8c:	e8 80 1c 00 00       	callq  402c11 <gencookie>
  400f91:	89 05 69 35 20 00    	mov    %eax,0x203569(%rip)        # 604500 <authkey>
  400f97:	8b 05 93 31 20 00    	mov    0x203193(%rip),%eax        # 604130 <target_id>
  400f9d:	8d 78 01             	lea    0x1(%rax),%edi
  400fa0:	e8 5b fc ff ff       	callq  400c00 <srandom@plt>
  400fa5:	e8 66 fd ff ff       	callq  400d10 <random@plt>
  400faa:	89 c7                	mov    %eax,%edi
  400fac:	e8 c3 02 00 00       	callq  401274 <scramble>
  400fb1:	89 c3                	mov    %eax,%ebx
  400fb3:	85 ed                	test   %ebp,%ebp
  400fb5:	75 3d                	jne    400ff4 <initialize_target+0x8c>
  400fb7:	b8 00 00 00 00       	mov    $0x0,%eax
  400fbc:	01 d8                	add    %ebx,%eax
  400fbe:	0f b7 c0             	movzwl %ax,%eax
  400fc1:	8d 04 c5 00 01 00 00 	lea    0x100(,%rax,8),%eax
  400fc8:	89 c0                	mov    %eax,%eax
  400fca:	48 89 05 af 34 20 00 	mov    %rax,0x2034af(%rip)        # 604480 <buf_offset>
  400fd1:	c6 05 50 41 20 00 63 	movb   $0x63,0x204150(%rip)        # 605128 <target_prefix>
  400fd8:	83 3d a9 34 20 00 00 	cmpl   $0x0,0x2034a9(%rip)        # 604488 <notify>
  400fdf:	74 09                	je     400fea <initialize_target+0x82>
  400fe1:	83 3d 20 35 20 00 00 	cmpl   $0x0,0x203520(%rip)        # 604508 <is_checker>
  400fe8:	74 22                	je     40100c <initialize_target+0xa4>
  400fea:	48 81 c4 08 21 00 00 	add    $0x2108,%rsp
  400ff1:	5b                   	pop    %rbx
  400ff2:	5d                   	pop    %rbp
  400ff3:	c3                   	retq   
  400ff4:	bf 00 00 00 00       	mov    $0x0,%edi
  400ff9:	e8 02 fd ff ff       	callq  400d00 <time@plt>
  400ffe:	89 c7                	mov    %eax,%edi
  401000:	e8 fb fb ff ff       	callq  400c00 <srandom@plt>
  401005:	e8 06 fd ff ff       	callq  400d10 <random@plt>
  40100a:	eb b0                	jmp    400fbc <initialize_target+0x54>
  40100c:	48 89 e7             	mov    %rsp,%rdi
  40100f:	be 00 01 00 00       	mov    $0x100,%esi
  401014:	e8 77 fd ff ff       	callq  400d90 <gethostname@plt>
  401019:	89 c3                	mov    %eax,%ebx
  40101b:	85 c0                	test   %eax,%eax
  40101d:	75 24                	jne    401043 <initialize_target+0xdb>
  40101f:	48 63 c3             	movslq %ebx,%rax
  401022:	48 8d 15 37 31 20 00 	lea    0x203137(%rip),%rdx        # 604160 <host_table>
  401029:	48 8b 3c c2          	mov    (%rdx,%rax,8),%rdi
  40102d:	48 85 ff             	test   %rdi,%rdi
  401030:	74 27                	je     401059 <initialize_target+0xf1>
  401032:	48 89 e6             	mov    %rsp,%rsi
  401035:	e8 a6 fb ff ff       	callq  400be0 <strcasecmp@plt>
  40103a:	85 c0                	test   %eax,%eax
  40103c:	74 1b                	je     401059 <initialize_target+0xf1>
  40103e:	83 c3 01             	add    $0x1,%ebx
  401041:	eb dc                	jmp    40101f <initialize_target+0xb7>
  401043:	48 8d 3d 4e 1d 00 00 	lea    0x1d4e(%rip),%rdi        # 402d98 <_IO_stdin_used+0xe8>
  40104a:	e8 e1 fb ff ff       	callq  400c30 <puts@plt>
  40104f:	bf 08 00 00 00       	mov    $0x8,%edi
  401054:	e8 57 fd ff ff       	callq  400db0 <exit@plt>
  401059:	48 8d bc 24 00 01 00 	lea    0x100(%rsp),%rdi
  401060:	00 
  401061:	e8 30 19 00 00       	callq  402996 <init_driver>
  401066:	85 c0                	test   %eax,%eax
  401068:	79 80                	jns    400fea <initialize_target+0x82>
  40106a:	48 8d b4 24 00 01 00 	lea    0x100(%rsp),%rsi
  401071:	00 
  401072:	48 8d 3d 57 1d 00 00 	lea    0x1d57(%rip),%rdi        # 402dd0 <_IO_stdin_used+0x120>
  401079:	b8 00 00 00 00       	mov    $0x0,%eax
  40107e:	e8 dd fb ff ff       	callq  400c60 <printf@plt>
  401083:	bf 08 00 00 00       	mov    $0x8,%edi
  401088:	e8 23 fd ff ff       	callq  400db0 <exit@plt>

000000000040108d <main>:
  40108d:	41 56                	push   %r14
  40108f:	41 55                	push   %r13
  401091:	41 54                	push   %r12
  401093:	55                   	push   %rbp
  401094:	53                   	push   %rbx
  401095:	41 89 fc             	mov    %edi,%r12d
  401098:	48 89 f3             	mov    %rsi,%rbx
  40109b:	48 c7 c6 3c 1d 40 00 	mov    $0x401d3c,%rsi
  4010a2:	bf 0b 00 00 00       	mov    $0xb,%edi
  4010a7:	e8 04 fc ff ff       	callq  400cb0 <signal@plt>
  4010ac:	48 c7 c6 e8 1c 40 00 	mov    $0x401ce8,%rsi
  4010b3:	bf 07 00 00 00       	mov    $0x7,%edi
  4010b8:	e8 f3 fb ff ff       	callq  400cb0 <signal@plt>
  4010bd:	48 c7 c6 90 1d 40 00 	mov    $0x401d90,%rsi
  4010c4:	bf 04 00 00 00       	mov    $0x4,%edi
  4010c9:	e8 e2 fb ff ff       	callq  400cb0 <signal@plt>
  4010ce:	83 3d 33 34 20 00 00 	cmpl   $0x0,0x203433(%rip)        # 604508 <is_checker>
  4010d5:	75 58                	jne    40112f <main+0xa2>
  4010d7:	48 8d 2d b7 1d 00 00 	lea    0x1db7(%rip),%rbp        # 402e95 <_IO_stdin_used+0x1e5>
  4010de:	48 8b 05 bb 33 20 00 	mov    0x2033bb(%rip),%rax        # 6044a0 <stdin@@GLIBC_2.2.5>
  4010e5:	48 89 05 04 34 20 00 	mov    %rax,0x203404(%rip)        # 6044f0 <infile>
  4010ec:	41 bd 00 00 00 00    	mov    $0x0,%r13d
  4010f2:	41 be 00 00 00 00    	mov    $0x0,%r14d
  4010f8:	48 89 ea             	mov    %rbp,%rdx
  4010fb:	48 89 de             	mov    %rbx,%rsi
  4010fe:	44 89 e7             	mov    %r12d,%edi
  401101:	e8 6a fc ff ff       	callq  400d70 <getopt@plt>
  401106:	3c ff                	cmp    $0xff,%al
  401108:	0f 84 f8 00 00 00    	je     401206 <main+0x179>
  40110e:	0f be f0             	movsbl %al,%esi
  401111:	83 e8 61             	sub    $0x61,%eax
  401114:	3c 10                	cmp    $0x10,%al
  401116:	0f 87 d1 00 00 00    	ja     4011ed <main+0x160>
  40111c:	0f b6 c0             	movzbl %al,%eax
  40111f:	48 8d 15 ba 1d 00 00 	lea    0x1dba(%rip),%rdx        # 402ee0 <_IO_stdin_used+0x230>
  401126:	48 63 04 82          	movslq (%rdx,%rax,4),%rax
  40112a:	48 01 d0             	add    %rdx,%rax
  40112d:	ff e0                	jmpq   *%rax
  40112f:	48 c7 c6 e4 1d 40 00 	mov    $0x401de4,%rsi
  401136:	bf 0e 00 00 00       	mov    $0xe,%edi
  40113b:	e8 70 fb ff ff       	callq  400cb0 <signal@plt>
  401140:	bf 05 00 00 00       	mov    $0x5,%edi
  401145:	e8 36 fb ff ff       	callq  400c80 <alarm@plt>
  40114a:	48 8d 2d 49 1d 00 00 	lea    0x1d49(%rip),%rbp        # 402e9a <_IO_stdin_used+0x1ea>
  401151:	eb 8b                	jmp    4010de <main+0x51>
  401153:	48 8b 3b             	mov    (%rbx),%rdi
  401156:	e8 7b fd ff ff       	callq  400ed6 <usage>
  40115b:	48 8d 35 9b 1f 00 00 	lea    0x1f9b(%rip),%rsi        # 4030fd <_IO_stdin_used+0x44d>
  401162:	48 8b 3d 3f 33 20 00 	mov    0x20333f(%rip),%rdi        # 6044a8 <optarg@@GLIBC_2.2.5>
  401169:	e8 f2 fb ff ff       	callq  400d60 <fopen@plt>
  40116e:	48 89 05 7b 33 20 00 	mov    %rax,0x20337b(%rip)        # 6044f0 <infile>
  401175:	48 85 c0             	test   %rax,%rax
  401178:	0f 85 7a ff ff ff    	jne    4010f8 <main+0x6b>
  40117e:	48 8b 15 23 33 20 00 	mov    0x203323(%rip),%rdx        # 6044a8 <optarg@@GLIBC_2.2.5>
  401185:	48 8d 35 16 1d 00 00 	lea    0x1d16(%rip),%rsi        # 402ea2 <_IO_stdin_used+0x1f2>
  40118c:	48 8b 3d 2d 33 20 00 	mov    0x20332d(%rip),%rdi        # 6044c0 <stderr@@GLIBC_2.2.5>
  401193:	e8 38 fb ff ff       	callq  400cd0 <fprintf@plt>
  401198:	b8 01 00 00 00       	mov    $0x1,%eax
  40119d:	e9 c9 00 00 00       	jmpq   40126b <main+0x1de>
  4011a2:	ba 10 00 00 00       	mov    $0x10,%edx
  4011a7:	be 00 00 00 00       	mov    $0x0,%esi
  4011ac:	48 8b 3d f5 32 20 00 	mov    0x2032f5(%rip),%rdi        # 6044a8 <optarg@@GLIBC_2.2.5>
  4011b3:	e8 c8 fb ff ff       	callq  400d80 <strtoul@plt>
  4011b8:	41 89 c6             	mov    %eax,%r14d
  4011bb:	e9 38 ff ff ff       	jmpq   4010f8 <main+0x6b>
  4011c0:	ba 0a 00 00 00       	mov    $0xa,%edx
  4011c5:	be 00 00 00 00       	mov    $0x0,%esi
  4011ca:	48 8b 3d d7 32 20 00 	mov    0x2032d7(%rip),%rdi        # 6044a8 <optarg@@GLIBC_2.2.5>
  4011d1:	e8 0a fb ff ff       	callq  400ce0 <strtol@plt>
  4011d6:	41 89 c5             	mov    %eax,%r13d
  4011d9:	e9 1a ff ff ff       	jmpq   4010f8 <main+0x6b>
  4011de:	c7 05 a0 32 20 00 00 	movl   $0x0,0x2032a0(%rip)        # 604488 <notify>
  4011e5:	00 00 00 
  4011e8:	e9 0b ff ff ff       	jmpq   4010f8 <main+0x6b>
  4011ed:	48 8d 3d cb 1c 00 00 	lea    0x1ccb(%rip),%rdi        # 402ebf <_IO_stdin_used+0x20f>
  4011f4:	b8 00 00 00 00       	mov    $0x0,%eax
  4011f9:	e8 62 fa ff ff       	callq  400c60 <printf@plt>
  4011fe:	48 8b 3b             	mov    (%rbx),%rdi
  401201:	e8 d0 fc ff ff       	callq  400ed6 <usage>
  401206:	be 00 00 00 00       	mov    $0x0,%esi
  40120b:	44 89 ef             	mov    %r13d,%edi
  40120e:	e8 55 fd ff ff       	callq  400f68 <initialize_target>
  401213:	83 3d ee 32 20 00 00 	cmpl   $0x0,0x2032ee(%rip)        # 604508 <is_checker>
  40121a:	74 27                	je     401243 <main+0x1b6>
  40121c:	44 3b 35 dd 32 20 00 	cmp    0x2032dd(%rip),%r14d        # 604500 <authkey>
  401223:	74 1e                	je     401243 <main+0x1b6>
  401225:	44 89 f6             	mov    %r14d,%esi
  401228:	48 8d 3d c9 1b 00 00 	lea    0x1bc9(%rip),%rdi        # 402df8 <_IO_stdin_used+0x148>
  40122f:	b8 00 00 00 00       	mov    $0x0,%eax
  401234:	e8 27 fa ff ff       	callq  400c60 <printf@plt>
  401239:	b8 00 00 00 00       	mov    $0x0,%eax
  40123e:	e8 75 07 00 00       	callq  4019b8 <check_fail>
  401243:	8b 35 bb 32 20 00    	mov    0x2032bb(%rip),%esi        # 604504 <cookie>
  401249:	48 8d 3d 82 1c 00 00 	lea    0x1c82(%rip),%rdi        # 402ed2 <_IO_stdin_used+0x222>
  401250:	b8 00 00 00 00       	mov    $0x0,%eax
  401255:	e8 06 fa ff ff       	callq  400c60 <printf@plt>
  40125a:	48 8b 3d 1f 32 20 00 	mov    0x20321f(%rip),%rdi        # 604480 <buf_offset>
  401261:	e8 59 0c 00 00       	callq  401ebf <stable_launch>
  401266:	b8 00 00 00 00       	mov    $0x0,%eax
  40126b:	5b                   	pop    %rbx
  40126c:	5d                   	pop    %rbp
  40126d:	41 5c                	pop    %r12
  40126f:	41 5d                	pop    %r13
  401271:	41 5e                	pop    %r14
  401273:	c3                   	retq   

0000000000401274 <scramble>:
  401274:	b8 00 00 00 00       	mov    $0x0,%eax
  401279:	eb 11                	jmp    40128c <scramble+0x18>
  40127b:	69 d0 1f 39 00 00    	imul   $0x391f,%eax,%edx
  401281:	01 fa                	add    %edi,%edx
  401283:	89 c1                	mov    %eax,%ecx
  401285:	89 54 8c d0          	mov    %edx,-0x30(%rsp,%rcx,4)
  401289:	83 c0 01             	add    $0x1,%eax
  40128c:	83 f8 09             	cmp    $0x9,%eax
  40128f:	76 ea                	jbe    40127b <scramble+0x7>
  401291:	8b 44 24 e8          	mov    -0x18(%rsp),%eax
  401295:	69 c0 b5 55 00 00    	imul   $0x55b5,%eax,%eax
  40129b:	89 44 24 e8          	mov    %eax,-0x18(%rsp)
  40129f:	8b 44 24 dc          	mov    -0x24(%rsp),%eax
  4012a3:	69 c0 a6 c5 00 00    	imul   $0xc5a6,%eax,%eax
  4012a9:	89 44 24 dc          	mov    %eax,-0x24(%rsp)
  4012ad:	8b 44 24 d4          	mov    -0x2c(%rsp),%eax
  4012b1:	69 c0 08 3f 00 00    	imul   $0x3f08,%eax,%eax
  4012b7:	89 44 24 d4          	mov    %eax,-0x2c(%rsp)
  4012bb:	8b 44 24 d8          	mov    -0x28(%rsp),%eax
  4012bf:	69 c0 b2 92 00 00    	imul   $0x92b2,%eax,%eax
  4012c5:	89 44 24 d8          	mov    %eax,-0x28(%rsp)
  4012c9:	8b 44 24 d4          	mov    -0x2c(%rsp),%eax
  4012cd:	69 c0 ae 0e 00 00    	imul   $0xeae,%eax,%eax
  4012d3:	89 44 24 d4          	mov    %eax,-0x2c(%rsp)
  4012d7:	8b 44 24 d0          	mov    -0x30(%rsp),%eax
  4012db:	69 c0 e3 3a 00 00    	imul   $0x3ae3,%eax,%eax
  4012e1:	89 44 24 d0          	mov    %eax,-0x30(%rsp)
  4012e5:	8b 44 24 d8          	mov    -0x28(%rsp),%eax
  4012e9:	69 c0 e7 ba 00 00    	imul   $0xbae7,%eax,%eax
  4012ef:	89 44 24 d8          	mov    %eax,-0x28(%rsp)
  4012f3:	8b 44 24 f0          	mov    -0x10(%rsp),%eax
  4012f7:	69 c0 29 87 00 00    	imul   $0x8729,%eax,%eax
  4012fd:	89 44 24 f0          	mov    %eax,-0x10(%rsp)
  401301:	8b 44 24 e4          	mov    -0x1c(%rsp),%eax
  401305:	69 c0 78 a1 00 00    	imul   $0xa178,%eax,%eax
  40130b:	89 44 24 e4          	mov    %eax,-0x1c(%rsp)
  40130f:	8b 44 24 d8          	mov    -0x28(%rsp),%eax
  401313:	69 c0 fe f7 00 00    	imul   $0xf7fe,%eax,%eax
  401319:	89 44 24 d8          	mov    %eax,-0x28(%rsp)
  40131d:	8b 44 24 e0          	mov    -0x20(%rsp),%eax
  401321:	69 c0 41 28 00 00    	imul   $0x2841,%eax,%eax
  401327:	89 44 24 e0          	mov    %eax,-0x20(%rsp)
  40132b:	8b 44 24 ec          	mov    -0x14(%rsp),%eax
  40132f:	69 c0 42 36 00 00    	imul   $0x3642,%eax,%eax
  401335:	89 44 24 ec          	mov    %eax,-0x14(%rsp)
  401339:	8b 44 24 e0          	mov    -0x20(%rsp),%eax
  40133d:	69 c0 e2 d0 00 00    	imul   $0xd0e2,%eax,%eax
  401343:	89 44 24 e0          	mov    %eax,-0x20(%rsp)
  401347:	8b 44 24 f0          	mov    -0x10(%rsp),%eax
  40134b:	69 c0 f3 42 00 00    	imul   $0x42f3,%eax,%eax
  401351:	89 44 24 f0          	mov    %eax,-0x10(%rsp)
  401355:	8b 44 24 dc          	mov    -0x24(%rsp),%eax
  401359:	69 c0 ae c0 00 00    	imul   $0xc0ae,%eax,%eax
  40135f:	89 44 24 dc          	mov    %eax,-0x24(%rsp)
  401363:	8b 44 24 ec          	mov    -0x14(%rsp),%eax
  401367:	69 c0 b3 b6 00 00    	imul   $0xb6b3,%eax,%eax
  40136d:	89 44 24 ec          	mov    %eax,-0x14(%rsp)
  401371:	8b 44 24 d4          	mov    -0x2c(%rsp),%eax
  401375:	69 c0 dd 3c 00 00    	imul   $0x3cdd,%eax,%eax
  40137b:	89 44 24 d4          	mov    %eax,-0x2c(%rsp)
  40137f:	8b 44 24 d4          	mov    -0x2c(%rsp),%eax
  401383:	69 c0 11 a5 00 00    	imul   $0xa511,%eax,%eax
  401389:	89 44 24 d4          	mov    %eax,-0x2c(%rsp)
  40138d:	8b 44 24 d4          	mov    -0x2c(%rsp),%eax
  401391:	69 c0 ee 46 00 00    	imul   $0x46ee,%eax,%eax
  401397:	89 44 24 d4          	mov    %eax,-0x2c(%rsp)
  40139b:	8b 44 24 e8          	mov    -0x18(%rsp),%eax
  40139f:	69 c0 5e d7 00 00    	imul   $0xd75e,%eax,%eax
  4013a5:	89 44 24 e8          	mov    %eax,-0x18(%rsp)
  4013a9:	8b 44 24 f4          	mov    -0xc(%rsp),%eax
  4013ad:	69 c0 22 41 00 00    	imul   $0x4122,%eax,%eax
  4013b3:	89 44 24 f4          	mov    %eax,-0xc(%rsp)
  4013b7:	8b 44 24 d8          	mov    -0x28(%rsp),%eax
  4013bb:	69 c0 74 79 00 00    	imul   $0x7974,%eax,%eax
  4013c1:	89 44 24 d8          	mov    %eax,-0x28(%rsp)
  4013c5:	8b 44 24 d4          	mov    -0x2c(%rsp),%eax
  4013c9:	69 c0 c1 17 00 00    	imul   $0x17c1,%eax,%eax
  4013cf:	89 44 24 d4          	mov    %eax,-0x2c(%rsp)
  4013d3:	8b 44 24 ec          	mov    -0x14(%rsp),%eax
  4013d7:	69 c0 fc 72 00 00    	imul   $0x72fc,%eax,%eax
  4013dd:	89 44 24 ec          	mov    %eax,-0x14(%rsp)
  4013e1:	8b 44 24 f0          	mov    -0x10(%rsp),%eax
  4013e5:	69 c0 c6 dd 00 00    	imul   $0xddc6,%eax,%eax
  4013eb:	89 44 24 f0          	mov    %eax,-0x10(%rsp)
  4013ef:	8b 44 24 d4          	mov    -0x2c(%rsp),%eax
  4013f3:	69 c0 15 5d 00 00    	imul   $0x5d15,%eax,%eax
  4013f9:	89 44 24 d4          	mov    %eax,-0x2c(%rsp)
  4013fd:	8b 44 24 ec          	mov    -0x14(%rsp),%eax
  401401:	69 c0 5f 8f 00 00    	imul   $0x8f5f,%eax,%eax
  401407:	89 44 24 ec          	mov    %eax,-0x14(%rsp)
  40140b:	8b 44 24 dc          	mov    -0x24(%rsp),%eax
  40140f:	69 c0 3f 20 00 00    	imul   $0x203f,%eax,%eax
  401415:	89 44 24 dc          	mov    %eax,-0x24(%rsp)
  401419:	8b 44 24 d8          	mov    -0x28(%rsp),%eax
  40141d:	69 c0 2b ec 00 00    	imul   $0xec2b,%eax,%eax
  401423:	89 44 24 d8          	mov    %eax,-0x28(%rsp)
  401427:	8b 44 24 d4          	mov    -0x2c(%rsp),%eax
  40142b:	69 c0 d5 dd 00 00    	imul   $0xddd5,%eax,%eax
  401431:	89 44 24 d4          	mov    %eax,-0x2c(%rsp)
  401435:	8b 44 24 d8          	mov    -0x28(%rsp),%eax
  401439:	69 c0 27 09 00 00    	imul   $0x927,%eax,%eax
  40143f:	89 44 24 d8          	mov    %eax,-0x28(%rsp)
  401443:	8b 44 24 f4          	mov    -0xc(%rsp),%eax
  401447:	69 c0 3c c3 00 00    	imul   $0xc33c,%eax,%eax
  40144d:	89 44 24 f4          	mov    %eax,-0xc(%rsp)
  401451:	8b 44 24 dc          	mov    -0x24(%rsp),%eax
  401455:	69 c0 e1 10 00 00    	imul   $0x10e1,%eax,%eax
  40145b:	89 44 24 dc          	mov    %eax,-0x24(%rsp)
  40145f:	8b 44 24 d4          	mov    -0x2c(%rsp),%eax
  401463:	69 c0 ea c1 00 00    	imul   $0xc1ea,%eax,%eax
  401469:	89 44 24 d4          	mov    %eax,-0x2c(%rsp)
  40146d:	8b 44 24 f0          	mov    -0x10(%rsp),%eax
  401471:	69 c0 10 a0 00 00    	imul   $0xa010,%eax,%eax
  401477:	89 44 24 f0          	mov    %eax,-0x10(%rsp)
  40147b:	8b 44 24 d4          	mov    -0x2c(%rsp),%eax
  40147f:	69 c0 6b ad 00 00    	imul   $0xad6b,%eax,%eax
  401485:	89 44 24 d4          	mov    %eax,-0x2c(%rsp)
  401489:	8b 44 24 dc          	mov    -0x24(%rsp),%eax
  40148d:	69 c0 89 ab 00 00    	imul   $0xab89,%eax,%eax
  401493:	89 44 24 dc          	mov    %eax,-0x24(%rsp)
  401497:	8b 44 24 d0          	mov    -0x30(%rsp),%eax
  40149b:	69 c0 3d dd 00 00    	imul   $0xdd3d,%eax,%eax
  4014a1:	89 44 24 d0          	mov    %eax,-0x30(%rsp)
  4014a5:	8b 44 24 e4          	mov    -0x1c(%rsp),%eax
  4014a9:	69 c0 7d 27 00 00    	imul   $0x277d,%eax,%eax
  4014af:	89 44 24 e4          	mov    %eax,-0x1c(%rsp)
  4014b3:	8b 44 24 dc          	mov    -0x24(%rsp),%eax
  4014b7:	69 c0 83 7c 00 00    	imul   $0x7c83,%eax,%eax
  4014bd:	89 44 24 dc          	mov    %eax,-0x24(%rsp)
  4014c1:	8b 44 24 f0          	mov    -0x10(%rsp),%eax
  4014c5:	69 c0 33 bb 00 00    	imul   $0xbb33,%eax,%eax
  4014cb:	89 44 24 f0          	mov    %eax,-0x10(%rsp)
  4014cf:	8b 44 24 f0          	mov    -0x10(%rsp),%eax
  4014d3:	69 c0 4b 0b 00 00    	imul   $0xb4b,%eax,%eax
  4014d9:	89 44 24 f0          	mov    %eax,-0x10(%rsp)
  4014dd:	8b 44 24 f0          	mov    -0x10(%rsp),%eax
  4014e1:	69 c0 ef 6c 00 00    	imul   $0x6cef,%eax,%eax
  4014e7:	89 44 24 f0          	mov    %eax,-0x10(%rsp)
  4014eb:	8b 44 24 e8          	mov    -0x18(%rsp),%eax
  4014ef:	69 c0 d4 aa 00 00    	imul   $0xaad4,%eax,%eax
  4014f5:	89 44 24 e8          	mov    %eax,-0x18(%rsp)
  4014f9:	8b 44 24 e4          	mov    -0x1c(%rsp),%eax
  4014fd:	69 c0 bc 8e 00 00    	imul   $0x8ebc,%eax,%eax
  401503:	89 44 24 e4          	mov    %eax,-0x1c(%rsp)
  401507:	8b 44 24 f0          	mov    -0x10(%rsp),%eax
  40150b:	69 c0 f3 05 00 00    	imul   $0x5f3,%eax,%eax
  401511:	89 44 24 f0          	mov    %eax,-0x10(%rsp)
  401515:	8b 44 24 d0          	mov    -0x30(%rsp),%eax
  401519:	69 c0 32 1d 00 00    	imul   $0x1d32,%eax,%eax
  40151f:	89 44 24 d0          	mov    %eax,-0x30(%rsp)
  401523:	8b 44 24 e4          	mov    -0x1c(%rsp),%eax
  401527:	69 c0 e9 dd 00 00    	imul   $0xdde9,%eax,%eax
  40152d:	89 44 24 e4          	mov    %eax,-0x1c(%rsp)
  401531:	8b 44 24 d4          	mov    -0x2c(%rsp),%eax
  401535:	69 c0 7d 31 00 00    	imul   $0x317d,%eax,%eax
  40153b:	89 44 24 d4          	mov    %eax,-0x2c(%rsp)
  40153f:	8b 44 24 d0          	mov    -0x30(%rsp),%eax
  401543:	69 c0 e3 85 00 00    	imul   $0x85e3,%eax,%eax
  401549:	89 44 24 d0          	mov    %eax,-0x30(%rsp)
  40154d:	8b 44 24 e0          	mov    -0x20(%rsp),%eax
  401551:	69 c0 1c 39 00 00    	imul   $0x391c,%eax,%eax
  401557:	89 44 24 e0          	mov    %eax,-0x20(%rsp)
  40155b:	8b 44 24 f4          	mov    -0xc(%rsp),%eax
  40155f:	69 c0 c1 b2 00 00    	imul   $0xb2c1,%eax,%eax
  401565:	89 44 24 f4          	mov    %eax,-0xc(%rsp)
  401569:	8b 44 24 e8          	mov    -0x18(%rsp),%eax
  40156d:	69 c0 2e 5a 00 00    	imul   $0x5a2e,%eax,%eax
  401573:	89 44 24 e8          	mov    %eax,-0x18(%rsp)
  401577:	8b 44 24 ec          	mov    -0x14(%rsp),%eax
  40157b:	69 c0 f0 a7 00 00    	imul   $0xa7f0,%eax,%eax
  401581:	89 44 24 ec          	mov    %eax,-0x14(%rsp)
  401585:	8b 44 24 f4          	mov    -0xc(%rsp),%eax
  401589:	69 c0 37 e0 00 00    	imul   $0xe037,%eax,%eax
  40158f:	89 44 24 f4          	mov    %eax,-0xc(%rsp)
  401593:	8b 44 24 e8          	mov    -0x18(%rsp),%eax
  401597:	69 c0 ee 86 00 00    	imul   $0x86ee,%eax,%eax
  40159d:	89 44 24 e8          	mov    %eax,-0x18(%rsp)
  4015a1:	8b 44 24 f4          	mov    -0xc(%rsp),%eax
  4015a5:	69 c0 0c fe 00 00    	imul   $0xfe0c,%eax,%eax
  4015ab:	89 44 24 f4          	mov    %eax,-0xc(%rsp)
  4015af:	8b 44 24 e4          	mov    -0x1c(%rsp),%eax
  4015b3:	69 c0 fd e5 00 00    	imul   $0xe5fd,%eax,%eax
  4015b9:	89 44 24 e4          	mov    %eax,-0x1c(%rsp)
  4015bd:	8b 44 24 f4          	mov    -0xc(%rsp),%eax
  4015c1:	69 c0 c3 bd 00 00    	imul   $0xbdc3,%eax,%eax
  4015c7:	89 44 24 f4          	mov    %eax,-0xc(%rsp)
  4015cb:	8b 44 24 d0          	mov    -0x30(%rsp),%eax
  4015cf:	69 c0 16 c4 00 00    	imul   $0xc416,%eax,%eax
  4015d5:	89 44 24 d0          	mov    %eax,-0x30(%rsp)
  4015d9:	8b 44 24 dc          	mov    -0x24(%rsp),%eax
  4015dd:	69 c0 7a 19 00 00    	imul   $0x197a,%eax,%eax
  4015e3:	89 44 24 dc          	mov    %eax,-0x24(%rsp)
  4015e7:	8b 44 24 e0          	mov    -0x20(%rsp),%eax
  4015eb:	69 c0 64 e4 00 00    	imul   $0xe464,%eax,%eax
  4015f1:	89 44 24 e0          	mov    %eax,-0x20(%rsp)
  4015f5:	8b 44 24 f4          	mov    -0xc(%rsp),%eax
  4015f9:	69 c0 39 93 00 00    	imul   $0x9339,%eax,%eax
  4015ff:	89 44 24 f4          	mov    %eax,-0xc(%rsp)
  401603:	8b 44 24 f4          	mov    -0xc(%rsp),%eax
  401607:	69 c0 c0 64 00 00    	imul   $0x64c0,%eax,%eax
  40160d:	89 44 24 f4          	mov    %eax,-0xc(%rsp)
  401611:	8b 44 24 f4          	mov    -0xc(%rsp),%eax
  401615:	69 c0 20 62 00 00    	imul   $0x6220,%eax,%eax
  40161b:	89 44 24 f4          	mov    %eax,-0xc(%rsp)
  40161f:	8b 44 24 d8          	mov    -0x28(%rsp),%eax
  401623:	69 c0 45 96 00 00    	imul   $0x9645,%eax,%eax
  401629:	89 44 24 d8          	mov    %eax,-0x28(%rsp)
  40162d:	8b 44 24 e8          	mov    -0x18(%rsp),%eax
  401631:	69 c0 f1 1d 00 00    	imul   $0x1df1,%eax,%eax
  401637:	89 44 24 e8          	mov    %eax,-0x18(%rsp)
  40163b:	8b 44 24 e4          	mov    -0x1c(%rsp),%eax
  40163f:	69 c0 e2 7f 00 00    	imul   $0x7fe2,%eax,%eax
  401645:	89 44 24 e4          	mov    %eax,-0x1c(%rsp)
  401649:	8b 44 24 e8          	mov    -0x18(%rsp),%eax
  40164d:	69 c0 04 d9 00 00    	imul   $0xd904,%eax,%eax
  401653:	89 44 24 e8          	mov    %eax,-0x18(%rsp)
  401657:	8b 44 24 e4          	mov    -0x1c(%rsp),%eax
  40165b:	69 c0 ca f9 00 00    	imul   $0xf9ca,%eax,%eax
  401661:	89 44 24 e4          	mov    %eax,-0x1c(%rsp)
  401665:	8b 44 24 e4          	mov    -0x1c(%rsp),%eax
  401669:	69 c0 45 4c 00 00    	imul   $0x4c45,%eax,%eax
  40166f:	89 44 24 e4          	mov    %eax,-0x1c(%rsp)
  401673:	8b 44 24 e4          	mov    -0x1c(%rsp),%eax
  401677:	69 c0 a5 54 00 00    	imul   $0x54a5,%eax,%eax
  40167d:	89 44 24 e4          	mov    %eax,-0x1c(%rsp)
  401681:	8b 44 24 d0          	mov    -0x30(%rsp),%eax
  401685:	69 c0 f2 12 00 00    	imul   $0x12f2,%eax,%eax
  40168b:	89 44 24 d0          	mov    %eax,-0x30(%rsp)
  40168f:	8b 44 24 d8          	mov    -0x28(%rsp),%eax
  401693:	69 c0 4d b5 00 00    	imul   $0xb54d,%eax,%eax
  401699:	89 44 24 d8          	mov    %eax,-0x28(%rsp)
  40169d:	8b 44 24 ec          	mov    -0x14(%rsp),%eax
  4016a1:	69 c0 73 cb 00 00    	imul   $0xcb73,%eax,%eax
  4016a7:	89 44 24 ec          	mov    %eax,-0x14(%rsp)
  4016ab:	8b 44 24 f0          	mov    -0x10(%rsp),%eax
  4016af:	69 c0 36 1d 00 00    	imul   $0x1d36,%eax,%eax
  4016b5:	89 44 24 f0          	mov    %eax,-0x10(%rsp)
  4016b9:	8b 44 24 e0          	mov    -0x20(%rsp),%eax
  4016bd:	69 c0 6c 43 00 00    	imul   $0x436c,%eax,%eax
  4016c3:	89 44 24 e0          	mov    %eax,-0x20(%rsp)
  4016c7:	8b 44 24 e8          	mov    -0x18(%rsp),%eax
  4016cb:	69 c0 9a 1b 00 00    	imul   $0x1b9a,%eax,%eax
  4016d1:	89 44 24 e8          	mov    %eax,-0x18(%rsp)
  4016d5:	8b 44 24 e0          	mov    -0x20(%rsp),%eax
  4016d9:	69 c0 e7 c3 00 00    	imul   $0xc3e7,%eax,%eax
  4016df:	89 44 24 e0          	mov    %eax,-0x20(%rsp)
  4016e3:	8b 44 24 e4          	mov    -0x1c(%rsp),%eax
  4016e7:	69 c0 5d 9b 00 00    	imul   $0x9b5d,%eax,%eax
  4016ed:	89 44 24 e4          	mov    %eax,-0x1c(%rsp)
  4016f1:	8b 44 24 d0          	mov    -0x30(%rsp),%eax
  4016f5:	69 c0 fd 6a 00 00    	imul   $0x6afd,%eax,%eax
  4016fb:	89 44 24 d0          	mov    %eax,-0x30(%rsp)
  4016ff:	8b 44 24 f4          	mov    -0xc(%rsp),%eax
  401703:	69 c0 44 c1 00 00    	imul   $0xc144,%eax,%eax
  401709:	89 44 24 f4          	mov    %eax,-0xc(%rsp)
  40170d:	8b 44 24 e0          	mov    -0x20(%rsp),%eax
  401711:	69 c0 a8 7a 00 00    	imul   $0x7aa8,%eax,%eax
  401717:	89 44 24 e0          	mov    %eax,-0x20(%rsp)
  40171b:	8b 44 24 d0          	mov    -0x30(%rsp),%eax
  40171f:	69 c0 0e 01 00 00    	imul   $0x10e,%eax,%eax
  401725:	89 44 24 d0          	mov    %eax,-0x30(%rsp)
  401729:	8b 44 24 f4          	mov    -0xc(%rsp),%eax
  40172d:	69 c0 f8 68 00 00    	imul   $0x68f8,%eax,%eax
  401733:	89 44 24 f4          	mov    %eax,-0xc(%rsp)
  401737:	8b 44 24 ec          	mov    -0x14(%rsp),%eax
  40173b:	69 c0 e7 0c 00 00    	imul   $0xce7,%eax,%eax
  401741:	89 44 24 ec          	mov    %eax,-0x14(%rsp)
  401745:	8b 44 24 d0          	mov    -0x30(%rsp),%eax
  401749:	69 c0 92 7b 00 00    	imul   $0x7b92,%eax,%eax
  40174f:	89 44 24 d0          	mov    %eax,-0x30(%rsp)
  401753:	8b 44 24 d0          	mov    -0x30(%rsp),%eax
  401757:	69 c0 8f ff 00 00    	imul   $0xff8f,%eax,%eax
  40175d:	89 44 24 d0          	mov    %eax,-0x30(%rsp)
  401761:	8b 44 24 e8          	mov    -0x18(%rsp),%eax
  401765:	69 c0 2f 9c 00 00    	imul   $0x9c2f,%eax,%eax
  40176b:	89 44 24 e8          	mov    %eax,-0x18(%rsp)
  40176f:	8b 44 24 e0          	mov    -0x20(%rsp),%eax
  401773:	69 c0 3a 5f 00 00    	imul   $0x5f3a,%eax,%eax
  401779:	89 44 24 e0          	mov    %eax,-0x20(%rsp)
  40177d:	ba 00 00 00 00       	mov    $0x0,%edx
  401782:	b8 00 00 00 00       	mov    $0x0,%eax
  401787:	eb 0b                	jmp    401794 <scramble+0x520>
  401789:	89 d1                	mov    %edx,%ecx
  40178b:	8b 4c 8c d0          	mov    -0x30(%rsp,%rcx,4),%ecx
  40178f:	01 c8                	add    %ecx,%eax
  401791:	83 c2 01             	add    $0x1,%edx
  401794:	83 fa 09             	cmp    $0x9,%edx
  401797:	76 f0                	jbe    401789 <scramble+0x515>
  401799:	f3 c3                	repz retq 

000000000040179b <getbuf>:
  40179b:	48 83 ec 18          	sub    $0x18,%rsp
  40179f:	48 89 e7             	mov    %rsp,%rdi
  4017a2:	e8 44 02 00 00       	callq  4019eb <Gets>
  4017a7:	b8 01 00 00 00       	mov    $0x1,%eax
  4017ac:	48 83 c4 18          	add    $0x18,%rsp
  4017b0:	c3                   	retq   

00000000004017b1 <touch1>:
  4017b1:	48 83 ec 08          	sub    $0x8,%rsp
  4017b5:	c7 05 3d 2d 20 00 01 	movl   $0x1,0x202d3d(%rip)        # 6044fc <vlevel>
  4017bc:	00 00 00 
  4017bf:	48 8d 3d 8d 17 00 00 	lea    0x178d(%rip),%rdi        # 402f53 <_IO_stdin_used+0x2a3>
  4017c6:	e8 65 f4 ff ff       	callq  400c30 <puts@plt>
  4017cb:	bf 01 00 00 00       	mov    $0x1,%edi
  4017d0:	e8 2d 04 00 00       	callq  401c02 <validate>
  4017d5:	bf 00 00 00 00       	mov    $0x0,%edi
  4017da:	e8 d1 f5 ff ff       	callq  400db0 <exit@plt>

00000000004017df <touch2>:
  4017df:	48 83 ec 08          	sub    $0x8,%rsp
  4017e3:	89 fe                	mov    %edi,%esi
  4017e5:	c7 05 0d 2d 20 00 02 	movl   $0x2,0x202d0d(%rip)        # 6044fc <vlevel>
  4017ec:	00 00 00 
  4017ef:	39 3d 0f 2d 20 00    	cmp    %edi,0x202d0f(%rip)        # 604504 <cookie>
  4017f5:	74 25                	je     40181c <touch2+0x3d>
  4017f7:	48 8d 3d a2 17 00 00 	lea    0x17a2(%rip),%rdi        # 402fa0 <_IO_stdin_used+0x2f0>
  4017fe:	b8 00 00 00 00       	mov    $0x0,%eax
  401803:	e8 58 f4 ff ff       	callq  400c60 <printf@plt>
  401808:	bf 02 00 00 00       	mov    $0x2,%edi
  40180d:	e8 ae 04 00 00       	callq  401cc0 <fail>
  401812:	bf 00 00 00 00       	mov    $0x0,%edi
  401817:	e8 94 f5 ff ff       	callq  400db0 <exit@plt>
  40181c:	48 8d 3d 55 17 00 00 	lea    0x1755(%rip),%rdi        # 402f78 <_IO_stdin_used+0x2c8>
  401823:	b8 00 00 00 00       	mov    $0x0,%eax
  401828:	e8 33 f4 ff ff       	callq  400c60 <printf@plt>
  40182d:	bf 02 00 00 00       	mov    $0x2,%edi
  401832:	e8 cb 03 00 00       	callq  401c02 <validate>
  401837:	eb d9                	jmp    401812 <touch2+0x33>

0000000000401839 <hexmatch>:
  401839:	41 54                	push   %r12
  40183b:	55                   	push   %rbp
  40183c:	53                   	push   %rbx
  40183d:	48 83 ec 70          	sub    $0x70,%rsp
  401841:	89 fd                	mov    %edi,%ebp
  401843:	48 89 f3             	mov    %rsi,%rbx
  401846:	e8 c5 f4 ff ff       	callq  400d10 <random@plt>
  40184b:	48 89 c1             	mov    %rax,%rcx
  40184e:	48 ba 0b d7 a3 70 3d 	movabs $0xa3d70a3d70a3d70b,%rdx
  401855:	0a d7 a3 
  401858:	48 f7 ea             	imul   %rdx
  40185b:	48 01 ca             	add    %rcx,%rdx
  40185e:	48 c1 fa 06          	sar    $0x6,%rdx
  401862:	48 89 c8             	mov    %rcx,%rax
  401865:	48 c1 f8 3f          	sar    $0x3f,%rax
  401869:	48 29 c2             	sub    %rax,%rdx
  40186c:	48 8d 04 92          	lea    (%rdx,%rdx,4),%rax
  401870:	48 8d 14 80          	lea    (%rax,%rax,4),%rdx
  401874:	48 8d 04 95 00 00 00 	lea    0x0(,%rdx,4),%rax
  40187b:	00 
  40187c:	48 29 c1             	sub    %rax,%rcx
  40187f:	4c 8d 24 0c          	lea    (%rsp,%rcx,1),%r12
  401883:	89 ea                	mov    %ebp,%edx
  401885:	48 8d 35 e4 16 00 00 	lea    0x16e4(%rip),%rsi        # 402f70 <_IO_stdin_used+0x2c0>
  40188c:	4c 89 e7             	mov    %r12,%rdi
  40188f:	b8 00 00 00 00       	mov    $0x0,%eax
  401894:	e8 07 f5 ff ff       	callq  400da0 <sprintf@plt>
  401899:	ba 09 00 00 00       	mov    $0x9,%edx
  40189e:	4c 89 e6             	mov    %r12,%rsi
  4018a1:	48 89 df             	mov    %rbx,%rdi
  4018a4:	e8 67 f3 ff ff       	callq  400c10 <strncmp@plt>
  4018a9:	85 c0                	test   %eax,%eax
  4018ab:	0f 94 c0             	sete   %al
  4018ae:	0f b6 c0             	movzbl %al,%eax
  4018b1:	48 83 c4 70          	add    $0x70,%rsp
  4018b5:	5b                   	pop    %rbx
  4018b6:	5d                   	pop    %rbp
  4018b7:	41 5c                	pop    %r12
  4018b9:	c3                   	retq   

00000000004018ba <touch3>:
  4018ba:	53                   	push   %rbx
  4018bb:	48 89 fb             	mov    %rdi,%rbx
  4018be:	c7 05 34 2c 20 00 03 	movl   $0x3,0x202c34(%rip)        # 6044fc <vlevel>
  4018c5:	00 00 00 
  4018c8:	48 89 fe             	mov    %rdi,%rsi
  4018cb:	8b 3d 33 2c 20 00    	mov    0x202c33(%rip),%edi        # 604504 <cookie>
  4018d1:	e8 63 ff ff ff       	callq  401839 <hexmatch>
  4018d6:	85 c0                	test   %eax,%eax
  4018d8:	74 28                	je     401902 <touch3+0x48>
  4018da:	48 89 de             	mov    %rbx,%rsi
  4018dd:	48 8d 3d e4 16 00 00 	lea    0x16e4(%rip),%rdi        # 402fc8 <_IO_stdin_used+0x318>
  4018e4:	b8 00 00 00 00       	mov    $0x0,%eax
  4018e9:	e8 72 f3 ff ff       	callq  400c60 <printf@plt>
  4018ee:	bf 03 00 00 00       	mov    $0x3,%edi
  4018f3:	e8 0a 03 00 00       	callq  401c02 <validate>
  4018f8:	bf 00 00 00 00       	mov    $0x0,%edi
  4018fd:	e8 ae f4 ff ff       	callq  400db0 <exit@plt>
  401902:	48 89 de             	mov    %rbx,%rsi
  401905:	48 8d 3d e4 16 00 00 	lea    0x16e4(%rip),%rdi        # 402ff0 <_IO_stdin_used+0x340>
  40190c:	b8 00 00 00 00       	mov    $0x0,%eax
  401911:	e8 4a f3 ff ff       	callq  400c60 <printf@plt>
  401916:	bf 03 00 00 00       	mov    $0x3,%edi
  40191b:	e8 a0 03 00 00       	callq  401cc0 <fail>
  401920:	eb d6                	jmp    4018f8 <touch3+0x3e>

0000000000401922 <test>:
  401922:	48 83 ec 08          	sub    $0x8,%rsp
  401926:	b8 00 00 00 00       	mov    $0x0,%eax
  40192b:	e8 6b fe ff ff       	callq  40179b <getbuf>
  401930:	89 c6                	mov    %eax,%esi
  401932:	48 8d 3d df 16 00 00 	lea    0x16df(%rip),%rdi        # 403018 <_IO_stdin_used+0x368>
  401939:	b8 00 00 00 00       	mov    $0x0,%eax
  40193e:	e8 1d f3 ff ff       	callq  400c60 <printf@plt>
  401943:	48 83 c4 08          	add    $0x8,%rsp
  401947:	c3                   	retq   

0000000000401948 <save_char>:
  401948:	8b 05 d6 37 20 00    	mov    0x2037d6(%rip),%eax        # 605124 <gets_cnt>
  40194e:	3d ff 03 00 00       	cmp    $0x3ff,%eax
  401953:	7f 4a                	jg     40199f <save_char+0x57>
  401955:	8d 14 40             	lea    (%rax,%rax,2),%edx
  401958:	89 f9                	mov    %edi,%ecx
  40195a:	c0 e9 04             	shr    $0x4,%cl
  40195d:	4c 8d 05 dc 19 00 00 	lea    0x19dc(%rip),%r8        # 403340 <trans_char>
  401964:	83 e1 0f             	and    $0xf,%ecx
  401967:	45 0f b6 0c 08       	movzbl (%r8,%rcx,1),%r9d
  40196c:	48 8d 0d ad 2b 20 00 	lea    0x202bad(%rip),%rcx        # 604520 <gets_buf>
  401973:	48 63 f2             	movslq %edx,%rsi
  401976:	44 88 0c 31          	mov    %r9b,(%rcx,%rsi,1)
  40197a:	8d 72 01             	lea    0x1(%rdx),%esi
  40197d:	83 e7 0f             	and    $0xf,%edi
  401980:	41 0f b6 3c 38       	movzbl (%r8,%rdi,1),%edi
  401985:	48 63 f6             	movslq %esi,%rsi
  401988:	40 88 3c 31          	mov    %dil,(%rcx,%rsi,1)
  40198c:	83 c2 02             	add    $0x2,%edx
  40198f:	48 63 d2             	movslq %edx,%rdx
  401992:	c6 04 11 20          	movb   $0x20,(%rcx,%rdx,1)
  401996:	83 c0 01             	add    $0x1,%eax
  401999:	89 05 85 37 20 00    	mov    %eax,0x203785(%rip)        # 605124 <gets_cnt>
  40199f:	f3 c3                	repz retq 

00000000004019a1 <save_term>:
  4019a1:	8b 05 7d 37 20 00    	mov    0x20377d(%rip),%eax        # 605124 <gets_cnt>
  4019a7:	8d 04 40             	lea    (%rax,%rax,2),%eax
  4019aa:	48 98                	cltq   
  4019ac:	48 8d 15 6d 2b 20 00 	lea    0x202b6d(%rip),%rdx        # 604520 <gets_buf>
  4019b3:	c6 04 02 00          	movb   $0x0,(%rdx,%rax,1)
  4019b7:	c3                   	retq   

00000000004019b8 <check_fail>:
  4019b8:	48 83 ec 08          	sub    $0x8,%rsp
  4019bc:	0f be 35 65 37 20 00 	movsbl 0x203765(%rip),%esi        # 605128 <target_prefix>
  4019c3:	48 8d 0d 56 2b 20 00 	lea    0x202b56(%rip),%rcx        # 604520 <gets_buf>
  4019ca:	8b 15 28 2b 20 00    	mov    0x202b28(%rip),%edx        # 6044f8 <check_level>
  4019d0:	48 8d 3d 64 16 00 00 	lea    0x1664(%rip),%rdi        # 40303b <_IO_stdin_used+0x38b>
  4019d7:	b8 00 00 00 00       	mov    $0x0,%eax
  4019dc:	e8 7f f2 ff ff       	callq  400c60 <printf@plt>
  4019e1:	bf 01 00 00 00       	mov    $0x1,%edi
  4019e6:	e8 c5 f3 ff ff       	callq  400db0 <exit@plt>

00000000004019eb <Gets>:
  4019eb:	41 54                	push   %r12
  4019ed:	55                   	push   %rbp
  4019ee:	53                   	push   %rbx
  4019ef:	49 89 fc             	mov    %rdi,%r12
  4019f2:	c7 05 28 37 20 00 00 	movl   $0x0,0x203728(%rip)        # 605124 <gets_cnt>
  4019f9:	00 00 00 
  4019fc:	48 89 fb             	mov    %rdi,%rbx
  4019ff:	eb 11                	jmp    401a12 <Gets+0x27>
  401a01:	48 8d 6b 01          	lea    0x1(%rbx),%rbp
  401a05:	88 03                	mov    %al,(%rbx)
  401a07:	0f b6 f8             	movzbl %al,%edi
  401a0a:	e8 39 ff ff ff       	callq  401948 <save_char>
  401a0f:	48 89 eb             	mov    %rbp,%rbx
  401a12:	48 8b 3d d7 2a 20 00 	mov    0x202ad7(%rip),%rdi        # 6044f0 <infile>
  401a19:	e8 02 f3 ff ff       	callq  400d20 <_IO_getc@plt>
  401a1e:	83 f8 ff             	cmp    $0xffffffff,%eax
  401a21:	74 05                	je     401a28 <Gets+0x3d>
  401a23:	83 f8 0a             	cmp    $0xa,%eax
  401a26:	75 d9                	jne    401a01 <Gets+0x16>
  401a28:	c6 03 00             	movb   $0x0,(%rbx)
  401a2b:	b8 00 00 00 00       	mov    $0x0,%eax
  401a30:	e8 6c ff ff ff       	callq  4019a1 <save_term>
  401a35:	4c 89 e0             	mov    %r12,%rax
  401a38:	5b                   	pop    %rbx
  401a39:	5d                   	pop    %rbp
  401a3a:	41 5c                	pop    %r12
  401a3c:	c3                   	retq   

0000000000401a3d <notify_server>:
  401a3d:	83 3d c4 2a 20 00 00 	cmpl   $0x0,0x202ac4(%rip)        # 604508 <is_checker>
  401a44:	0f 85 de 00 00 00    	jne    401b28 <notify_server+0xeb>
  401a4a:	55                   	push   %rbp
  401a4b:	53                   	push   %rbx
  401a4c:	48 81 ec 08 40 00 00 	sub    $0x4008,%rsp
  401a53:	89 fb                	mov    %edi,%ebx
  401a55:	8b 05 c9 36 20 00    	mov    0x2036c9(%rip),%eax        # 605124 <gets_cnt>
  401a5b:	83 c0 64             	add    $0x64,%eax
  401a5e:	3d 00 20 00 00       	cmp    $0x2000,%eax
  401a63:	0f 8f c1 00 00 00    	jg     401b2a <notify_server+0xed>
  401a69:	44 0f be 0d b7 36 20 	movsbl 0x2036b7(%rip),%r9d        # 605128 <target_prefix>
  401a70:	00 
  401a71:	83 3d 10 2a 20 00 00 	cmpl   $0x0,0x202a10(%rip)        # 604488 <notify>
  401a78:	0f 84 c7 00 00 00    	je     401b45 <notify_server+0x108>
  401a7e:	44 8b 05 7b 2a 20 00 	mov    0x202a7b(%rip),%r8d        # 604500 <authkey>
  401a85:	85 db                	test   %ebx,%ebx
  401a87:	0f 84 c3 00 00 00    	je     401b50 <notify_server+0x113>
  401a8d:	48 8d 2d bd 15 00 00 	lea    0x15bd(%rip),%rbp        # 403051 <_IO_stdin_used+0x3a1>
  401a94:	48 8d bc 24 00 20 00 	lea    0x2000(%rsp),%rdi
  401a9b:	00 
  401a9c:	48 8d 05 7d 2a 20 00 	lea    0x202a7d(%rip),%rax        # 604520 <gets_buf>
  401aa3:	50                   	push   %rax
  401aa4:	56                   	push   %rsi
  401aa5:	48 89 e9             	mov    %rbp,%rcx
  401aa8:	8b 15 82 26 20 00    	mov    0x202682(%rip),%edx        # 604130 <target_id>
  401aae:	48 8d 35 a6 15 00 00 	lea    0x15a6(%rip),%rsi        # 40305b <_IO_stdin_used+0x3ab>
  401ab5:	b8 00 00 00 00       	mov    $0x0,%eax
  401aba:	e8 e1 f2 ff ff       	callq  400da0 <sprintf@plt>
  401abf:	48 83 c4 10          	add    $0x10,%rsp
  401ac3:	83 3d be 29 20 00 00 	cmpl   $0x0,0x2029be(%rip)        # 604488 <notify>
  401aca:	0f 84 b8 00 00 00    	je     401b88 <notify_server+0x14b>
  401ad0:	85 db                	test   %ebx,%ebx
  401ad2:	0f 84 a2 00 00 00    	je     401b7a <notify_server+0x13d>
  401ad8:	48 8d 8c 24 00 20 00 	lea    0x2000(%rsp),%rcx
  401adf:	00 
  401ae0:	49 89 e1             	mov    %rsp,%r9
  401ae3:	41 b8 00 00 00 00    	mov    $0x0,%r8d
  401ae9:	48 8b 15 58 26 20 00 	mov    0x202658(%rip),%rdx        # 604148 <lab>
  401af0:	48 8b 35 59 26 20 00 	mov    0x202659(%rip),%rsi        # 604150 <course>
  401af7:	48 8b 3d 42 26 20 00 	mov    0x202642(%rip),%rdi        # 604140 <user_id>
  401afe:	e8 6e 10 00 00       	callq  402b71 <driver_post>
  401b03:	85 c0                	test   %eax,%eax
  401b05:	78 55                	js     401b5c <notify_server+0x11f>
  401b07:	48 8d 3d 92 16 00 00 	lea    0x1692(%rip),%rdi        # 4031a0 <_IO_stdin_used+0x4f0>
  401b0e:	e8 1d f1 ff ff       	callq  400c30 <puts@plt>
  401b13:	48 8d 3d 69 15 00 00 	lea    0x1569(%rip),%rdi        # 403083 <_IO_stdin_used+0x3d3>
  401b1a:	e8 11 f1 ff ff       	callq  400c30 <puts@plt>
  401b1f:	48 81 c4 08 40 00 00 	add    $0x4008,%rsp
  401b26:	5b                   	pop    %rbx
  401b27:	5d                   	pop    %rbp
  401b28:	f3 c3                	repz retq 
  401b2a:	48 8d 3d 3f 16 00 00 	lea    0x163f(%rip),%rdi        # 403170 <_IO_stdin_used+0x4c0>
  401b31:	b8 00 00 00 00       	mov    $0x0,%eax
  401b36:	e8 25 f1 ff ff       	callq  400c60 <printf@plt>
  401b3b:	bf 01 00 00 00       	mov    $0x1,%edi
  401b40:	e8 6b f2 ff ff       	callq  400db0 <exit@plt>
  401b45:	41 b8 ff ff ff ff    	mov    $0xffffffff,%r8d
  401b4b:	e9 35 ff ff ff       	jmpq   401a85 <notify_server+0x48>
  401b50:	48 8d 2d ff 14 00 00 	lea    0x14ff(%rip),%rbp        # 403056 <_IO_stdin_used+0x3a6>
  401b57:	e9 38 ff ff ff       	jmpq   401a94 <notify_server+0x57>
  401b5c:	48 89 e6             	mov    %rsp,%rsi
  401b5f:	48 8d 3d 11 15 00 00 	lea    0x1511(%rip),%rdi        # 403077 <_IO_stdin_used+0x3c7>
  401b66:	b8 00 00 00 00       	mov    $0x0,%eax
  401b6b:	e8 f0 f0 ff ff       	callq  400c60 <printf@plt>
  401b70:	bf 01 00 00 00       	mov    $0x1,%edi
  401b75:	e8 36 f2 ff ff       	callq  400db0 <exit@plt>
  401b7a:	48 8d 3d 0c 15 00 00 	lea    0x150c(%rip),%rdi        # 40308d <_IO_stdin_used+0x3dd>
  401b81:	e8 aa f0 ff ff       	callq  400c30 <puts@plt>
  401b86:	eb 97                	jmp    401b1f <notify_server+0xe2>
  401b88:	48 89 ee             	mov    %rbp,%rsi
  401b8b:	48 8d 3d 46 16 00 00 	lea    0x1646(%rip),%rdi        # 4031d8 <_IO_stdin_used+0x528>
  401b92:	b8 00 00 00 00       	mov    $0x0,%eax
  401b97:	e8 c4 f0 ff ff       	callq  400c60 <printf@plt>
  401b9c:	48 8b 35 9d 25 20 00 	mov    0x20259d(%rip),%rsi        # 604140 <user_id>
  401ba3:	48 8d 3d ea 14 00 00 	lea    0x14ea(%rip),%rdi        # 403094 <_IO_stdin_used+0x3e4>
  401baa:	b8 00 00 00 00       	mov    $0x0,%eax
  401baf:	e8 ac f0 ff ff       	callq  400c60 <printf@plt>
  401bb4:	48 8b 35 95 25 20 00 	mov    0x202595(%rip),%rsi        # 604150 <course>
  401bbb:	48 8d 3d df 14 00 00 	lea    0x14df(%rip),%rdi        # 4030a1 <_IO_stdin_used+0x3f1>
  401bc2:	b8 00 00 00 00       	mov    $0x0,%eax
  401bc7:	e8 94 f0 ff ff       	callq  400c60 <printf@plt>
  401bcc:	48 8b 35 75 25 20 00 	mov    0x202575(%rip),%rsi        # 604148 <lab>
  401bd3:	48 8d 3d d3 14 00 00 	lea    0x14d3(%rip),%rdi        # 4030ad <_IO_stdin_used+0x3fd>
  401bda:	b8 00 00 00 00       	mov    $0x0,%eax
  401bdf:	e8 7c f0 ff ff       	callq  400c60 <printf@plt>
  401be4:	48 8d b4 24 00 20 00 	lea    0x2000(%rsp),%rsi
  401beb:	00 
  401bec:	48 8d 3d c3 14 00 00 	lea    0x14c3(%rip),%rdi        # 4030b6 <_IO_stdin_used+0x406>
  401bf3:	b8 00 00 00 00       	mov    $0x0,%eax
  401bf8:	e8 63 f0 ff ff       	callq  400c60 <printf@plt>
  401bfd:	e9 1d ff ff ff       	jmpq   401b1f <notify_server+0xe2>

0000000000401c02 <validate>:
  401c02:	53                   	push   %rbx
  401c03:	89 fb                	mov    %edi,%ebx
  401c05:	83 3d fc 28 20 00 00 	cmpl   $0x0,0x2028fc(%rip)        # 604508 <is_checker>
  401c0c:	74 68                	je     401c76 <validate+0x74>
  401c0e:	39 3d e8 28 20 00    	cmp    %edi,0x2028e8(%rip)        # 6044fc <vlevel>
  401c14:	75 2d                	jne    401c43 <validate+0x41>
  401c16:	8b 35 dc 28 20 00    	mov    0x2028dc(%rip),%esi        # 6044f8 <check_level>
  401c1c:	39 f7                	cmp    %esi,%edi
  401c1e:	75 39                	jne    401c59 <validate+0x57>
  401c20:	0f be 35 01 35 20 00 	movsbl 0x203501(%rip),%esi        # 605128 <target_prefix>
  401c27:	48 8d 0d f2 28 20 00 	lea    0x2028f2(%rip),%rcx        # 604520 <gets_buf>
  401c2e:	89 fa                	mov    %edi,%edx
  401c30:	48 8d 3d a9 14 00 00 	lea    0x14a9(%rip),%rdi        # 4030e0 <_IO_stdin_used+0x430>
  401c37:	b8 00 00 00 00       	mov    $0x0,%eax
  401c3c:	e8 1f f0 ff ff       	callq  400c60 <printf@plt>
  401c41:	5b                   	pop    %rbx
  401c42:	c3                   	retq   
  401c43:	48 8d 3d 78 14 00 00 	lea    0x1478(%rip),%rdi        # 4030c2 <_IO_stdin_used+0x412>
  401c4a:	e8 e1 ef ff ff       	callq  400c30 <puts@plt>
  401c4f:	b8 00 00 00 00       	mov    $0x0,%eax
  401c54:	e8 5f fd ff ff       	callq  4019b8 <check_fail>
  401c59:	89 fa                	mov    %edi,%edx
  401c5b:	48 8d 3d 9e 15 00 00 	lea    0x159e(%rip),%rdi        # 403200 <_IO_stdin_used+0x550>
  401c62:	b8 00 00 00 00       	mov    $0x0,%eax
  401c67:	e8 f4 ef ff ff       	callq  400c60 <printf@plt>
  401c6c:	b8 00 00 00 00       	mov    $0x0,%eax
  401c71:	e8 42 fd ff ff       	callq  4019b8 <check_fail>
  401c76:	3b 3d 80 28 20 00    	cmp    0x202880(%rip),%edi        # 6044fc <vlevel>
  401c7c:	74 1a                	je     401c98 <validate+0x96>
  401c7e:	48 8d 3d 3d 14 00 00 	lea    0x143d(%rip),%rdi        # 4030c2 <_IO_stdin_used+0x412>
  401c85:	e8 a6 ef ff ff       	callq  400c30 <puts@plt>
  401c8a:	89 de                	mov    %ebx,%esi
  401c8c:	bf 00 00 00 00       	mov    $0x0,%edi
  401c91:	e8 a7 fd ff ff       	callq  401a3d <notify_server>
  401c96:	eb a9                	jmp    401c41 <validate+0x3f>
  401c98:	0f be 15 89 34 20 00 	movsbl 0x203489(%rip),%edx        # 605128 <target_prefix>
  401c9f:	89 fe                	mov    %edi,%esi
  401ca1:	48 8d 3d 80 15 00 00 	lea    0x1580(%rip),%rdi        # 403228 <_IO_stdin_used+0x578>
  401ca8:	b8 00 00 00 00       	mov    $0x0,%eax
  401cad:	e8 ae ef ff ff       	callq  400c60 <printf@plt>
  401cb2:	89 de                	mov    %ebx,%esi
  401cb4:	bf 01 00 00 00       	mov    $0x1,%edi
  401cb9:	e8 7f fd ff ff       	callq  401a3d <notify_server>
  401cbe:	eb 81                	jmp    401c41 <validate+0x3f>

0000000000401cc0 <fail>:
  401cc0:	48 83 ec 08          	sub    $0x8,%rsp
  401cc4:	83 3d 3d 28 20 00 00 	cmpl   $0x0,0x20283d(%rip)        # 604508 <is_checker>
  401ccb:	75 11                	jne    401cde <fail+0x1e>
  401ccd:	89 fe                	mov    %edi,%esi
  401ccf:	bf 00 00 00 00       	mov    $0x0,%edi
  401cd4:	e8 64 fd ff ff       	callq  401a3d <notify_server>
  401cd9:	48 83 c4 08          	add    $0x8,%rsp
  401cdd:	c3                   	retq   
  401cde:	b8 00 00 00 00       	mov    $0x0,%eax
  401ce3:	e8 d0 fc ff ff       	callq  4019b8 <check_fail>

0000000000401ce8 <bushandler>:
  401ce8:	48 83 ec 08          	sub    $0x8,%rsp
  401cec:	83 3d 15 28 20 00 00 	cmpl   $0x0,0x202815(%rip)        # 604508 <is_checker>
  401cf3:	74 16                	je     401d0b <bushandler+0x23>
  401cf5:	48 8d 3d f9 13 00 00 	lea    0x13f9(%rip),%rdi        # 4030f5 <_IO_stdin_used+0x445>
  401cfc:	e8 2f ef ff ff       	callq  400c30 <puts@plt>
  401d01:	b8 00 00 00 00       	mov    $0x0,%eax
  401d06:	e8 ad fc ff ff       	callq  4019b8 <check_fail>
  401d0b:	48 8d 3d 4e 15 00 00 	lea    0x154e(%rip),%rdi        # 403260 <_IO_stdin_used+0x5b0>
  401d12:	e8 19 ef ff ff       	callq  400c30 <puts@plt>
  401d17:	48 8d 3d e1 13 00 00 	lea    0x13e1(%rip),%rdi        # 4030ff <_IO_stdin_used+0x44f>
  401d1e:	e8 0d ef ff ff       	callq  400c30 <puts@plt>
  401d23:	be 00 00 00 00       	mov    $0x0,%esi
  401d28:	bf 00 00 00 00       	mov    $0x0,%edi
  401d2d:	e8 0b fd ff ff       	callq  401a3d <notify_server>
  401d32:	bf 01 00 00 00       	mov    $0x1,%edi
  401d37:	e8 74 f0 ff ff       	callq  400db0 <exit@plt>

0000000000401d3c <seghandler>:
  401d3c:	48 83 ec 08          	sub    $0x8,%rsp
  401d40:	83 3d c1 27 20 00 00 	cmpl   $0x0,0x2027c1(%rip)        # 604508 <is_checker>
  401d47:	74 16                	je     401d5f <seghandler+0x23>
  401d49:	48 8d 3d c5 13 00 00 	lea    0x13c5(%rip),%rdi        # 403115 <_IO_stdin_used+0x465>
  401d50:	e8 db ee ff ff       	callq  400c30 <puts@plt>
  401d55:	b8 00 00 00 00       	mov    $0x0,%eax
  401d5a:	e8 59 fc ff ff       	callq  4019b8 <check_fail>
  401d5f:	48 8d 3d 1a 15 00 00 	lea    0x151a(%rip),%rdi        # 403280 <_IO_stdin_used+0x5d0>
  401d66:	e8 c5 ee ff ff       	callq  400c30 <puts@plt>
  401d6b:	48 8d 3d 8d 13 00 00 	lea    0x138d(%rip),%rdi        # 4030ff <_IO_stdin_used+0x44f>
  401d72:	e8 b9 ee ff ff       	callq  400c30 <puts@plt>
  401d77:	be 00 00 00 00       	mov    $0x0,%esi
  401d7c:	bf 00 00 00 00       	mov    $0x0,%edi
  401d81:	e8 b7 fc ff ff       	callq  401a3d <notify_server>
  401d86:	bf 01 00 00 00       	mov    $0x1,%edi
  401d8b:	e8 20 f0 ff ff       	callq  400db0 <exit@plt>

0000000000401d90 <illegalhandler>:
  401d90:	48 83 ec 08          	sub    $0x8,%rsp
  401d94:	83 3d 6d 27 20 00 00 	cmpl   $0x0,0x20276d(%rip)        # 604508 <is_checker>
  401d9b:	74 16                	je     401db3 <illegalhandler+0x23>
  401d9d:	48 8d 3d 84 13 00 00 	lea    0x1384(%rip),%rdi        # 403128 <_IO_stdin_used+0x478>
  401da4:	e8 87 ee ff ff       	callq  400c30 <puts@plt>
  401da9:	b8 00 00 00 00       	mov    $0x0,%eax
  401dae:	e8 05 fc ff ff       	callq  4019b8 <check_fail>
  401db3:	48 8d 3d ee 14 00 00 	lea    0x14ee(%rip),%rdi        # 4032a8 <_IO_stdin_used+0x5f8>
  401dba:	e8 71 ee ff ff       	callq  400c30 <puts@plt>
  401dbf:	48 8d 3d 39 13 00 00 	lea    0x1339(%rip),%rdi        # 4030ff <_IO_stdin_used+0x44f>
  401dc6:	e8 65 ee ff ff       	callq  400c30 <puts@plt>
  401dcb:	be 00 00 00 00       	mov    $0x0,%esi
  401dd0:	bf 00 00 00 00       	mov    $0x0,%edi
  401dd5:	e8 63 fc ff ff       	callq  401a3d <notify_server>
  401dda:	bf 01 00 00 00       	mov    $0x1,%edi
  401ddf:	e8 cc ef ff ff       	callq  400db0 <exit@plt>

0000000000401de4 <sigalrmhandler>:
  401de4:	48 83 ec 08          	sub    $0x8,%rsp
  401de8:	83 3d 19 27 20 00 00 	cmpl   $0x0,0x202719(%rip)        # 604508 <is_checker>
  401def:	74 16                	je     401e07 <sigalrmhandler+0x23>
  401df1:	48 8d 3d 44 13 00 00 	lea    0x1344(%rip),%rdi        # 40313c <_IO_stdin_used+0x48c>
  401df8:	e8 33 ee ff ff       	callq  400c30 <puts@plt>
  401dfd:	b8 00 00 00 00       	mov    $0x0,%eax
  401e02:	e8 b1 fb ff ff       	callq  4019b8 <check_fail>
  401e07:	be 05 00 00 00       	mov    $0x5,%esi
  401e0c:	48 8d 3d c5 14 00 00 	lea    0x14c5(%rip),%rdi        # 4032d8 <_IO_stdin_used+0x628>
  401e13:	b8 00 00 00 00       	mov    $0x0,%eax
  401e18:	e8 43 ee ff ff       	callq  400c60 <printf@plt>
  401e1d:	be 00 00 00 00       	mov    $0x0,%esi
  401e22:	bf 00 00 00 00       	mov    $0x0,%edi
  401e27:	e8 11 fc ff ff       	callq  401a3d <notify_server>
  401e2c:	bf 01 00 00 00       	mov    $0x1,%edi
  401e31:	e8 7a ef ff ff       	callq  400db0 <exit@plt>

0000000000401e36 <launch>:
  401e36:	55                   	push   %rbp
  401e37:	48 89 e5             	mov    %rsp,%rbp
  401e3a:	48 89 fa             	mov    %rdi,%rdx
  401e3d:	48 8d 47 1e          	lea    0x1e(%rdi),%rax
  401e41:	48 83 e0 f0          	and    $0xfffffffffffffff0,%rax
  401e45:	48 29 c4             	sub    %rax,%rsp
  401e48:	48 8d 7c 24 0f       	lea    0xf(%rsp),%rdi
  401e4d:	48 83 e7 f0          	and    $0xfffffffffffffff0,%rdi
  401e51:	be f4 00 00 00       	mov    $0xf4,%esi
  401e56:	e8 15 ee ff ff       	callq  400c70 <memset@plt>
  401e5b:	48 8b 05 3e 26 20 00 	mov    0x20263e(%rip),%rax        # 6044a0 <stdin@@GLIBC_2.2.5>
  401e62:	48 39 05 87 26 20 00 	cmp    %rax,0x202687(%rip)        # 6044f0 <infile>
  401e69:	74 2b                	je     401e96 <launch+0x60>
  401e6b:	c7 05 87 26 20 00 00 	movl   $0x0,0x202687(%rip)        # 6044fc <vlevel>
  401e72:	00 00 00 
  401e75:	b8 00 00 00 00       	mov    $0x0,%eax
  401e7a:	e8 a3 fa ff ff       	callq  401922 <test>
  401e7f:	83 3d 82 26 20 00 00 	cmpl   $0x0,0x202682(%rip)        # 604508 <is_checker>
  401e86:	75 21                	jne    401ea9 <launch+0x73>
  401e88:	48 8d 3d cd 12 00 00 	lea    0x12cd(%rip),%rdi        # 40315c <_IO_stdin_used+0x4ac>
  401e8f:	e8 9c ed ff ff       	callq  400c30 <puts@plt>
  401e94:	c9                   	leaveq 
  401e95:	c3                   	retq   
  401e96:	48 8d 3d a7 12 00 00 	lea    0x12a7(%rip),%rdi        # 403144 <_IO_stdin_used+0x494>
  401e9d:	b8 00 00 00 00       	mov    $0x0,%eax
  401ea2:	e8 b9 ed ff ff       	callq  400c60 <printf@plt>
  401ea7:	eb c2                	jmp    401e6b <launch+0x35>
  401ea9:	48 8d 3d a1 12 00 00 	lea    0x12a1(%rip),%rdi        # 403151 <_IO_stdin_used+0x4a1>
  401eb0:	e8 7b ed ff ff       	callq  400c30 <puts@plt>
  401eb5:	b8 00 00 00 00       	mov    $0x0,%eax
  401eba:	e8 f9 fa ff ff       	callq  4019b8 <check_fail>

0000000000401ebf <stable_launch>:
  401ebf:	53                   	push   %rbx
  401ec0:	48 89 3d 21 26 20 00 	mov    %rdi,0x202621(%rip)        # 6044e8 <global_offset>
  401ec7:	41 b9 00 00 00 00    	mov    $0x0,%r9d
  401ecd:	41 b8 00 00 00 00    	mov    $0x0,%r8d
  401ed3:	b9 32 01 00 00       	mov    $0x132,%ecx
  401ed8:	ba 07 00 00 00       	mov    $0x7,%edx
  401edd:	be 00 00 10 00       	mov    $0x100000,%esi
  401ee2:	bf 00 60 58 55       	mov    $0x55586000,%edi
  401ee7:	e8 64 ed ff ff       	callq  400c50 <mmap@plt>
  401eec:	48 89 c3             	mov    %rax,%rbx
  401eef:	48 3d 00 60 58 55    	cmp    $0x55586000,%rax
  401ef5:	75 43                	jne    401f3a <stable_launch+0x7b>
  401ef7:	48 8d 90 f8 ff 0f 00 	lea    0xffff8(%rax),%rdx
  401efe:	48 89 15 2b 32 20 00 	mov    %rdx,0x20322b(%rip)        # 605130 <stack_top>
  401f05:	48 89 e0             	mov    %rsp,%rax
  401f08:	48 89 d4             	mov    %rdx,%rsp
  401f0b:	48 89 c2             	mov    %rax,%rdx
  401f0e:	48 89 15 cb 25 20 00 	mov    %rdx,0x2025cb(%rip)        # 6044e0 <global_save_stack>
  401f15:	48 8b 3d cc 25 20 00 	mov    0x2025cc(%rip),%rdi        # 6044e8 <global_offset>
  401f1c:	e8 15 ff ff ff       	callq  401e36 <launch>
  401f21:	48 8b 05 b8 25 20 00 	mov    0x2025b8(%rip),%rax        # 6044e0 <global_save_stack>
  401f28:	48 89 c4             	mov    %rax,%rsp
  401f2b:	be 00 00 10 00       	mov    $0x100000,%esi
  401f30:	48 89 df             	mov    %rbx,%rdi
  401f33:	e8 08 ee ff ff       	callq  400d40 <munmap@plt>
  401f38:	5b                   	pop    %rbx
  401f39:	c3                   	retq   
  401f3a:	be 00 00 10 00       	mov    $0x100000,%esi
  401f3f:	48 89 c7             	mov    %rax,%rdi
  401f42:	e8 f9 ed ff ff       	callq  400d40 <munmap@plt>
  401f47:	ba 00 60 58 55       	mov    $0x55586000,%edx
  401f4c:	48 8d 35 bd 13 00 00 	lea    0x13bd(%rip),%rsi        # 403310 <_IO_stdin_used+0x660>
  401f53:	48 8b 3d 66 25 20 00 	mov    0x202566(%rip),%rdi        # 6044c0 <stderr@@GLIBC_2.2.5>
  401f5a:	b8 00 00 00 00       	mov    $0x0,%eax
  401f5f:	e8 6c ed ff ff       	callq  400cd0 <fprintf@plt>
  401f64:	bf 01 00 00 00       	mov    $0x1,%edi
  401f69:	e8 42 ee ff ff       	callq  400db0 <exit@plt>

0000000000401f6e <rio_readinitb>:
  401f6e:	89 37                	mov    %esi,(%rdi)
  401f70:	c7 47 04 00 00 00 00 	movl   $0x0,0x4(%rdi)
  401f77:	48 8d 47 10          	lea    0x10(%rdi),%rax
  401f7b:	48 89 47 08          	mov    %rax,0x8(%rdi)
  401f7f:	c3                   	retq   

0000000000401f80 <sigalrm_handler>:
  401f80:	48 83 ec 08          	sub    $0x8,%rsp
  401f84:	ba 00 00 00 00       	mov    $0x0,%edx
  401f89:	48 8d 35 c0 13 00 00 	lea    0x13c0(%rip),%rsi        # 403350 <trans_char+0x10>
  401f90:	48 8b 3d 29 25 20 00 	mov    0x202529(%rip),%rdi        # 6044c0 <stderr@@GLIBC_2.2.5>
  401f97:	b8 00 00 00 00       	mov    $0x0,%eax
  401f9c:	e8 2f ed ff ff       	callq  400cd0 <fprintf@plt>
  401fa1:	bf 01 00 00 00       	mov    $0x1,%edi
  401fa6:	e8 05 ee ff ff       	callq  400db0 <exit@plt>

0000000000401fab <urlencode>:
  401fab:	41 54                	push   %r12
  401fad:	55                   	push   %rbp
  401fae:	53                   	push   %rbx
  401faf:	48 83 ec 10          	sub    $0x10,%rsp
  401fb3:	48 89 fb             	mov    %rdi,%rbx
  401fb6:	48 89 f5             	mov    %rsi,%rbp
  401fb9:	b8 00 00 00 00       	mov    $0x0,%eax
  401fbe:	48 c7 c1 ff ff ff ff 	mov    $0xffffffffffffffff,%rcx
  401fc5:	f2 ae                	repnz scas %es:(%rdi),%al
  401fc7:	48 f7 d1             	not    %rcx
  401fca:	8d 41 ff             	lea    -0x1(%rcx),%eax
  401fcd:	eb 0e                	jmp    401fdd <urlencode+0x32>
  401fcf:	88 55 00             	mov    %dl,0x0(%rbp)
  401fd2:	48 8d 6d 01          	lea    0x1(%rbp),%rbp
  401fd6:	48 83 c3 01          	add    $0x1,%rbx
  401fda:	44 89 e0             	mov    %r12d,%eax
  401fdd:	44 8d 60 ff          	lea    -0x1(%rax),%r12d
  401fe1:	85 c0                	test   %eax,%eax
  401fe3:	0f 84 95 00 00 00    	je     40207e <urlencode+0xd3>
  401fe9:	0f b6 13             	movzbl (%rbx),%edx
  401fec:	80 fa 2a             	cmp    $0x2a,%dl
  401fef:	0f 94 c1             	sete   %cl
  401ff2:	80 fa 2d             	cmp    $0x2d,%dl
  401ff5:	0f 94 c0             	sete   %al
  401ff8:	08 c1                	or     %al,%cl
  401ffa:	75 d3                	jne    401fcf <urlencode+0x24>
  401ffc:	80 fa 2e             	cmp    $0x2e,%dl
  401fff:	74 ce                	je     401fcf <urlencode+0x24>
  402001:	80 fa 5f             	cmp    $0x5f,%dl
  402004:	74 c9                	je     401fcf <urlencode+0x24>
  402006:	8d 42 d0             	lea    -0x30(%rdx),%eax
  402009:	3c 09                	cmp    $0x9,%al
  40200b:	76 c2                	jbe    401fcf <urlencode+0x24>
  40200d:	8d 42 bf             	lea    -0x41(%rdx),%eax
  402010:	3c 19                	cmp    $0x19,%al
  402012:	76 bb                	jbe    401fcf <urlencode+0x24>
  402014:	8d 42 9f             	lea    -0x61(%rdx),%eax
  402017:	3c 19                	cmp    $0x19,%al
  402019:	76 b4                	jbe    401fcf <urlencode+0x24>
  40201b:	80 fa 20             	cmp    $0x20,%dl
  40201e:	74 4c                	je     40206c <urlencode+0xc1>
  402020:	8d 42 e0             	lea    -0x20(%rdx),%eax
  402023:	3c 5f                	cmp    $0x5f,%al
  402025:	0f 96 c1             	setbe  %cl
  402028:	80 fa 09             	cmp    $0x9,%dl
  40202b:	0f 94 c0             	sete   %al
  40202e:	08 c1                	or     %al,%cl
  402030:	74 47                	je     402079 <urlencode+0xce>
  402032:	0f b6 d2             	movzbl %dl,%edx
  402035:	48 8d 7c 24 08       	lea    0x8(%rsp),%rdi
  40203a:	48 8d 35 a7 13 00 00 	lea    0x13a7(%rip),%rsi        # 4033e8 <trans_char+0xa8>
  402041:	b8 00 00 00 00       	mov    $0x0,%eax
  402046:	e8 55 ed ff ff       	callq  400da0 <sprintf@plt>
  40204b:	0f b6 44 24 08       	movzbl 0x8(%rsp),%eax
  402050:	88 45 00             	mov    %al,0x0(%rbp)
  402053:	0f b6 44 24 09       	movzbl 0x9(%rsp),%eax
  402058:	88 45 01             	mov    %al,0x1(%rbp)
  40205b:	0f b6 44 24 0a       	movzbl 0xa(%rsp),%eax
  402060:	88 45 02             	mov    %al,0x2(%rbp)
  402063:	48 8d 6d 03          	lea    0x3(%rbp),%rbp
  402067:	e9 6a ff ff ff       	jmpq   401fd6 <urlencode+0x2b>
  40206c:	c6 45 00 2b          	movb   $0x2b,0x0(%rbp)
  402070:	48 8d 6d 01          	lea    0x1(%rbp),%rbp
  402074:	e9 5d ff ff ff       	jmpq   401fd6 <urlencode+0x2b>
  402079:	b8 ff ff ff ff       	mov    $0xffffffff,%eax
  40207e:	48 83 c4 10          	add    $0x10,%rsp
  402082:	5b                   	pop    %rbx
  402083:	5d                   	pop    %rbp
  402084:	41 5c                	pop    %r12
  402086:	c3                   	retq   

0000000000402087 <rio_writen>:
  402087:	41 55                	push   %r13
  402089:	41 54                	push   %r12
  40208b:	55                   	push   %rbp
  40208c:	53                   	push   %rbx
  40208d:	48 83 ec 08          	sub    $0x8,%rsp
  402091:	41 89 fc             	mov    %edi,%r12d
  402094:	49 89 d5             	mov    %rdx,%r13
  402097:	48 89 f5             	mov    %rsi,%rbp
  40209a:	48 89 d3             	mov    %rdx,%rbx
  40209d:	eb 06                	jmp    4020a5 <rio_writen+0x1e>
  40209f:	48 29 c3             	sub    %rax,%rbx
  4020a2:	48 01 c5             	add    %rax,%rbp
  4020a5:	48 85 db             	test   %rbx,%rbx
  4020a8:	74 24                	je     4020ce <rio_writen+0x47>
  4020aa:	48 89 da             	mov    %rbx,%rdx
  4020ad:	48 89 ee             	mov    %rbp,%rsi
  4020b0:	44 89 e7             	mov    %r12d,%edi
  4020b3:	e8 88 eb ff ff       	callq  400c40 <write@plt>
  4020b8:	48 85 c0             	test   %rax,%rax
  4020bb:	7f e2                	jg     40209f <rio_writen+0x18>
  4020bd:	e8 2e eb ff ff       	callq  400bf0 <__errno_location@plt>
  4020c2:	83 38 04             	cmpl   $0x4,(%rax)
  4020c5:	75 15                	jne    4020dc <rio_writen+0x55>
  4020c7:	b8 00 00 00 00       	mov    $0x0,%eax
  4020cc:	eb d1                	jmp    40209f <rio_writen+0x18>
  4020ce:	4c 89 e8             	mov    %r13,%rax
  4020d1:	48 83 c4 08          	add    $0x8,%rsp
  4020d5:	5b                   	pop    %rbx
  4020d6:	5d                   	pop    %rbp
  4020d7:	41 5c                	pop    %r12
  4020d9:	41 5d                	pop    %r13
  4020db:	c3                   	retq   
  4020dc:	48 c7 c0 ff ff ff ff 	mov    $0xffffffffffffffff,%rax
  4020e3:	eb ec                	jmp    4020d1 <rio_writen+0x4a>

00000000004020e5 <rio_read>:
  4020e5:	41 55                	push   %r13
  4020e7:	41 54                	push   %r12
  4020e9:	55                   	push   %rbp
  4020ea:	53                   	push   %rbx
  4020eb:	48 83 ec 08          	sub    $0x8,%rsp
  4020ef:	48 89 fb             	mov    %rdi,%rbx
  4020f2:	49 89 f5             	mov    %rsi,%r13
  4020f5:	49 89 d4             	mov    %rdx,%r12
  4020f8:	eb 0a                	jmp    402104 <rio_read+0x1f>
  4020fa:	e8 f1 ea ff ff       	callq  400bf0 <__errno_location@plt>
  4020ff:	83 38 04             	cmpl   $0x4,(%rax)
  402102:	75 5c                	jne    402160 <rio_read+0x7b>
  402104:	8b 6b 04             	mov    0x4(%rbx),%ebp
  402107:	85 ed                	test   %ebp,%ebp
  402109:	7f 24                	jg     40212f <rio_read+0x4a>
  40210b:	48 8d 6b 10          	lea    0x10(%rbx),%rbp
  40210f:	ba 00 20 00 00       	mov    $0x2000,%edx
  402114:	48 89 ee             	mov    %rbp,%rsi
  402117:	8b 3b                	mov    (%rbx),%edi
  402119:	e8 82 eb ff ff       	callq  400ca0 <read@plt>
  40211e:	89 43 04             	mov    %eax,0x4(%rbx)
  402121:	85 c0                	test   %eax,%eax
  402123:	78 d5                	js     4020fa <rio_read+0x15>
  402125:	85 c0                	test   %eax,%eax
  402127:	74 40                	je     402169 <rio_read+0x84>
  402129:	48 89 6b 08          	mov    %rbp,0x8(%rbx)
  40212d:	eb d5                	jmp    402104 <rio_read+0x1f>
  40212f:	89 e8                	mov    %ebp,%eax
  402131:	49 39 c4             	cmp    %rax,%r12
  402134:	77 03                	ja     402139 <rio_read+0x54>
  402136:	44 89 e5             	mov    %r12d,%ebp
  402139:	4c 63 e5             	movslq %ebp,%r12
  40213c:	48 8b 73 08          	mov    0x8(%rbx),%rsi
  402140:	4c 89 e2             	mov    %r12,%rdx
  402143:	4c 89 ef             	mov    %r13,%rdi
  402146:	e8 a5 eb ff ff       	callq  400cf0 <memcpy@plt>
  40214b:	4c 01 63 08          	add    %r12,0x8(%rbx)
  40214f:	29 6b 04             	sub    %ebp,0x4(%rbx)
  402152:	4c 89 e0             	mov    %r12,%rax
  402155:	48 83 c4 08          	add    $0x8,%rsp
  402159:	5b                   	pop    %rbx
  40215a:	5d                   	pop    %rbp
  40215b:	41 5c                	pop    %r12
  40215d:	41 5d                	pop    %r13
  40215f:	c3                   	retq   
  402160:	48 c7 c0 ff ff ff ff 	mov    $0xffffffffffffffff,%rax
  402167:	eb ec                	jmp    402155 <rio_read+0x70>
  402169:	b8 00 00 00 00       	mov    $0x0,%eax
  40216e:	eb e5                	jmp    402155 <rio_read+0x70>

0000000000402170 <rio_readlineb>:
  402170:	41 55                	push   %r13
  402172:	41 54                	push   %r12
  402174:	55                   	push   %rbp
  402175:	53                   	push   %rbx
  402176:	48 83 ec 18          	sub    $0x18,%rsp
  40217a:	49 89 fd             	mov    %rdi,%r13
  40217d:	49 89 d4             	mov    %rdx,%r12
  402180:	48 89 f5             	mov    %rsi,%rbp
  402183:	bb 01 00 00 00       	mov    $0x1,%ebx
  402188:	4c 39 e3             	cmp    %r12,%rbx
  40218b:	73 47                	jae    4021d4 <rio_readlineb+0x64>
  40218d:	48 8d 74 24 0f       	lea    0xf(%rsp),%rsi
  402192:	ba 01 00 00 00       	mov    $0x1,%edx
  402197:	4c 89 ef             	mov    %r13,%rdi
  40219a:	e8 46 ff ff ff       	callq  4020e5 <rio_read>
  40219f:	83 f8 01             	cmp    $0x1,%eax
  4021a2:	75 1c                	jne    4021c0 <rio_readlineb+0x50>
  4021a4:	48 8d 45 01          	lea    0x1(%rbp),%rax
  4021a8:	0f b6 54 24 0f       	movzbl 0xf(%rsp),%edx
  4021ad:	88 55 00             	mov    %dl,0x0(%rbp)
  4021b0:	80 7c 24 0f 0a       	cmpb   $0xa,0xf(%rsp)
  4021b5:	74 1a                	je     4021d1 <rio_readlineb+0x61>
  4021b7:	48 83 c3 01          	add    $0x1,%rbx
  4021bb:	48 89 c5             	mov    %rax,%rbp
  4021be:	eb c8                	jmp    402188 <rio_readlineb+0x18>
  4021c0:	85 c0                	test   %eax,%eax
  4021c2:	75 22                	jne    4021e6 <rio_readlineb+0x76>
  4021c4:	48 83 fb 01          	cmp    $0x1,%rbx
  4021c8:	75 0a                	jne    4021d4 <rio_readlineb+0x64>
  4021ca:	b8 00 00 00 00       	mov    $0x0,%eax
  4021cf:	eb 0a                	jmp    4021db <rio_readlineb+0x6b>
  4021d1:	48 89 c5             	mov    %rax,%rbp
  4021d4:	c6 45 00 00          	movb   $0x0,0x0(%rbp)
  4021d8:	48 89 d8             	mov    %rbx,%rax
  4021db:	48 83 c4 18          	add    $0x18,%rsp
  4021df:	5b                   	pop    %rbx
  4021e0:	5d                   	pop    %rbp
  4021e1:	41 5c                	pop    %r12
  4021e3:	41 5d                	pop    %r13
  4021e5:	c3                   	retq   
  4021e6:	48 c7 c0 ff ff ff ff 	mov    $0xffffffffffffffff,%rax
  4021ed:	eb ec                	jmp    4021db <rio_readlineb+0x6b>

00000000004021ef <submitr>:
  4021ef:	41 57                	push   %r15
  4021f1:	41 56                	push   %r14
  4021f3:	41 55                	push   %r13
  4021f5:	41 54                	push   %r12
  4021f7:	55                   	push   %rbp
  4021f8:	53                   	push   %rbx
  4021f9:	48 81 ec 58 a0 00 00 	sub    $0xa058,%rsp
  402200:	49 89 fd             	mov    %rdi,%r13
  402203:	89 74 24 14          	mov    %esi,0x14(%rsp)
  402207:	49 89 d7             	mov    %rdx,%r15
  40220a:	48 89 4c 24 08       	mov    %rcx,0x8(%rsp)
  40220f:	4c 89 44 24 18       	mov    %r8,0x18(%rsp)
  402214:	4d 89 ce             	mov    %r9,%r14
  402217:	48 8b 9c 24 90 a0 00 	mov    0xa090(%rsp),%rbx
  40221e:	00 
  40221f:	c7 84 24 2c 20 00 00 	movl   $0x0,0x202c(%rsp)
  402226:	00 00 00 00 
  40222a:	ba 00 00 00 00       	mov    $0x0,%edx
  40222f:	be 01 00 00 00       	mov    $0x1,%esi
  402234:	bf 02 00 00 00       	mov    $0x2,%edi
  402239:	e8 92 eb ff ff       	callq  400dd0 <socket@plt>
  40223e:	85 c0                	test   %eax,%eax
  402240:	0f 88 ca 01 00 00    	js     402410 <submitr+0x221>
  402246:	89 c5                	mov    %eax,%ebp
  402248:	4c 89 ef             	mov    %r13,%rdi
  40224b:	e8 70 ea ff ff       	callq  400cc0 <gethostbyname@plt>
  402250:	48 85 c0             	test   %rax,%rax
  402253:	0f 84 05 02 00 00    	je     40245e <submitr+0x26f>
  402259:	4c 8d a4 24 40 a0 00 	lea    0xa040(%rsp),%r12
  402260:	00 
  402261:	48 c7 84 24 40 a0 00 	movq   $0x0,0xa040(%rsp)
  402268:	00 00 00 00 00 
  40226d:	48 c7 84 24 48 a0 00 	movq   $0x0,0xa048(%rsp)
  402274:	00 00 00 00 00 
  402279:	66 c7 84 24 40 a0 00 	movw   $0x2,0xa040(%rsp)
  402280:	00 02 00 
  402283:	48 8b 48 18          	mov    0x18(%rax),%rcx
  402287:	48 63 50 14          	movslq 0x14(%rax),%rdx
  40228b:	48 8d b4 24 44 a0 00 	lea    0xa044(%rsp),%rsi
  402292:	00 
  402293:	48 8b 39             	mov    (%rcx),%rdi
  402296:	e8 b5 ea ff ff       	callq  400d50 <bcopy@plt>
  40229b:	0f b7 44 24 14       	movzwl 0x14(%rsp),%eax
  4022a0:	66 c1 c8 08          	ror    $0x8,%ax
  4022a4:	66 89 84 24 42 a0 00 	mov    %ax,0xa042(%rsp)
  4022ab:	00 
  4022ac:	ba 10 00 00 00       	mov    $0x10,%edx
  4022b1:	4c 89 e6             	mov    %r12,%rsi
  4022b4:	89 ef                	mov    %ebp,%edi
  4022b6:	e8 05 eb ff ff       	callq  400dc0 <connect@plt>
  4022bb:	85 c0                	test   %eax,%eax
  4022bd:	0f 88 02 02 00 00    	js     4024c5 <submitr+0x2d6>
  4022c3:	48 c7 c6 ff ff ff ff 	mov    $0xffffffffffffffff,%rsi
  4022ca:	b8 00 00 00 00       	mov    $0x0,%eax
  4022cf:	48 89 f1             	mov    %rsi,%rcx
  4022d2:	4c 89 f7             	mov    %r14,%rdi
  4022d5:	f2 ae                	repnz scas %es:(%rdi),%al
  4022d7:	48 f7 d1             	not    %rcx
  4022da:	48 89 ca             	mov    %rcx,%rdx
  4022dd:	48 89 f1             	mov    %rsi,%rcx
  4022e0:	4c 89 ff             	mov    %r15,%rdi
  4022e3:	f2 ae                	repnz scas %es:(%rdi),%al
  4022e5:	48 f7 d1             	not    %rcx
  4022e8:	49 89 c8             	mov    %rcx,%r8
  4022eb:	48 89 f1             	mov    %rsi,%rcx
  4022ee:	48 8b 7c 24 08       	mov    0x8(%rsp),%rdi
  4022f3:	f2 ae                	repnz scas %es:(%rdi),%al
  4022f5:	48 f7 d1             	not    %rcx
  4022f8:	4d 8d 44 08 fe       	lea    -0x2(%r8,%rcx,1),%r8
  4022fd:	48 89 f1             	mov    %rsi,%rcx
  402300:	48 8b 7c 24 18       	mov    0x18(%rsp),%rdi
  402305:	f2 ae                	repnz scas %es:(%rdi),%al
  402307:	48 89 c8             	mov    %rcx,%rax
  40230a:	48 f7 d0             	not    %rax
  40230d:	49 8d 4c 00 ff       	lea    -0x1(%r8,%rax,1),%rcx
  402312:	48 8d 44 52 fd       	lea    -0x3(%rdx,%rdx,2),%rax
  402317:	48 8d 84 01 80 00 00 	lea    0x80(%rcx,%rax,1),%rax
  40231e:	00 
  40231f:	48 3d 00 20 00 00    	cmp    $0x2000,%rax
  402325:	0f 87 f3 01 00 00    	ja     40251e <submitr+0x32f>
  40232b:	48 8d b4 24 30 40 00 	lea    0x4030(%rsp),%rsi
  402332:	00 
  402333:	b9 00 04 00 00       	mov    $0x400,%ecx
  402338:	b8 00 00 00 00       	mov    $0x0,%eax
  40233d:	48 89 f7             	mov    %rsi,%rdi
  402340:	f3 48 ab             	rep stos %rax,%es:(%rdi)
  402343:	4c 89 f7             	mov    %r14,%rdi
  402346:	e8 60 fc ff ff       	callq  401fab <urlencode>
  40234b:	85 c0                	test   %eax,%eax
  40234d:	0f 88 3d 02 00 00    	js     402590 <submitr+0x3a1>
  402353:	4c 8d a4 24 30 60 00 	lea    0x6030(%rsp),%r12
  40235a:	00 
  40235b:	4d 89 e9             	mov    %r13,%r9
  40235e:	4c 8d 84 24 30 40 00 	lea    0x4030(%rsp),%r8
  402365:	00 
  402366:	4c 89 f9             	mov    %r15,%rcx
  402369:	48 8b 54 24 08       	mov    0x8(%rsp),%rdx
  40236e:	48 8d 35 03 10 00 00 	lea    0x1003(%rip),%rsi        # 403378 <trans_char+0x38>
  402375:	4c 89 e7             	mov    %r12,%rdi
  402378:	b8 00 00 00 00       	mov    $0x0,%eax
  40237d:	e8 1e ea ff ff       	callq  400da0 <sprintf@plt>
  402382:	b8 00 00 00 00       	mov    $0x0,%eax
  402387:	48 c7 c1 ff ff ff ff 	mov    $0xffffffffffffffff,%rcx
  40238e:	4c 89 e7             	mov    %r12,%rdi
  402391:	f2 ae                	repnz scas %es:(%rdi),%al
  402393:	48 f7 d1             	not    %rcx
  402396:	48 8d 51 ff          	lea    -0x1(%rcx),%rdx
  40239a:	4c 89 e6             	mov    %r12,%rsi
  40239d:	89 ef                	mov    %ebp,%edi
  40239f:	e8 e3 fc ff ff       	callq  402087 <rio_writen>
  4023a4:	48 85 c0             	test   %rax,%rax
  4023a7:	0f 88 6d 02 00 00    	js     40261a <submitr+0x42b>
  4023ad:	4c 8d a4 24 30 80 00 	lea    0x8030(%rsp),%r12
  4023b4:	00 
  4023b5:	89 ee                	mov    %ebp,%esi
  4023b7:	4c 89 e7             	mov    %r12,%rdi
  4023ba:	e8 af fb ff ff       	callq  401f6e <rio_readinitb>
  4023bf:	48 8d b4 24 30 60 00 	lea    0x6030(%rsp),%rsi
  4023c6:	00 
  4023c7:	ba 00 20 00 00       	mov    $0x2000,%edx
  4023cc:	4c 89 e7             	mov    %r12,%rdi
  4023cf:	e8 9c fd ff ff       	callq  402170 <rio_readlineb>
  4023d4:	48 85 c0             	test   %rax,%rax
  4023d7:	0f 8e ab 02 00 00    	jle    402688 <submitr+0x499>
  4023dd:	48 8d 8c 24 2c 20 00 	lea    0x202c(%rsp),%rcx
  4023e4:	00 
  4023e5:	48 8d 94 24 30 20 00 	lea    0x2030(%rsp),%rdx
  4023ec:	00 
  4023ed:	48 8d bc 24 30 60 00 	lea    0x6030(%rsp),%rdi
  4023f4:	00 
  4023f5:	4c 8d 44 24 20       	lea    0x20(%rsp),%r8
  4023fa:	48 8d 35 ee 0f 00 00 	lea    0xfee(%rip),%rsi        # 4033ef <trans_char+0xaf>
  402401:	b8 00 00 00 00       	mov    $0x0,%eax
  402406:	e8 25 e9 ff ff       	callq  400d30 <__isoc99_sscanf@plt>
  40240b:	e9 9f 03 00 00       	jmpq   4027af <submitr+0x5c0>
  402410:	48 b8 45 72 72 6f 72 	movabs $0x43203a726f727245,%rax
  402417:	3a 20 43 
  40241a:	48 89 03             	mov    %rax,(%rbx)
  40241d:	48 b8 6c 69 65 6e 74 	movabs $0x6e7520746e65696c,%rax
  402424:	20 75 6e 
  402427:	48 89 43 08          	mov    %rax,0x8(%rbx)
  40242b:	48 b8 61 62 6c 65 20 	movabs $0x206f7420656c6261,%rax
  402432:	74 6f 20 
  402435:	48 89 43 10          	mov    %rax,0x10(%rbx)
  402439:	48 b8 63 72 65 61 74 	movabs $0x7320657461657263,%rax
  402440:	65 20 73 
  402443:	48 89 43 18          	mov    %rax,0x18(%rbx)
  402447:	c7 43 20 6f 63 6b 65 	movl   $0x656b636f,0x20(%rbx)
  40244e:	66 c7 43 24 74 00    	movw   $0x74,0x24(%rbx)
  402454:	b8 ff ff ff ff       	mov    $0xffffffff,%eax
  402459:	e9 18 03 00 00       	jmpq   402776 <submitr+0x587>
  40245e:	48 b8 45 72 72 6f 72 	movabs $0x44203a726f727245,%rax
  402465:	3a 20 44 
  402468:	48 89 03             	mov    %rax,(%rbx)
  40246b:	48 b8 4e 53 20 69 73 	movabs $0x6e7520736920534e,%rax
  402472:	20 75 6e 
  402475:	48 89 43 08          	mov    %rax,0x8(%rbx)
  402479:	48 b8 61 62 6c 65 20 	movabs $0x206f7420656c6261,%rax
  402480:	74 6f 20 
  402483:	48 89 43 10          	mov    %rax,0x10(%rbx)
  402487:	48 b8 72 65 73 6f 6c 	movabs $0x2065766c6f736572,%rax
  40248e:	76 65 20 
  402491:	48 89 43 18          	mov    %rax,0x18(%rbx)
  402495:	48 b8 73 65 72 76 65 	movabs $0x6120726576726573,%rax
  40249c:	72 20 61 
  40249f:	48 89 43 20          	mov    %rax,0x20(%rbx)
  4024a3:	c7 43 28 64 64 72 65 	movl   $0x65726464,0x28(%rbx)
  4024aa:	66 c7 43 2c 73 73    	movw   $0x7373,0x2c(%rbx)
  4024b0:	c6 43 2e 00          	movb   $0x0,0x2e(%rbx)
  4024b4:	89 ef                	mov    %ebp,%edi
  4024b6:	e8 d5 e7 ff ff       	callq  400c90 <close@plt>
  4024bb:	b8 ff ff ff ff       	mov    $0xffffffff,%eax
  4024c0:	e9 b1 02 00 00       	jmpq   402776 <submitr+0x587>
  4024c5:	48 b8 45 72 72 6f 72 	movabs $0x55203a726f727245,%rax
  4024cc:	3a 20 55 
  4024cf:	48 89 03             	mov    %rax,(%rbx)
  4024d2:	48 b8 6e 61 62 6c 65 	movabs $0x6f7420656c62616e,%rax
  4024d9:	20 74 6f 
  4024dc:	48 89 43 08          	mov    %rax,0x8(%rbx)
  4024e0:	48 b8 20 63 6f 6e 6e 	movabs $0x7463656e6e6f6320,%rax
  4024e7:	65 63 74 
  4024ea:	48 89 43 10          	mov    %rax,0x10(%rbx)
  4024ee:	48 b8 20 74 6f 20 74 	movabs $0x20656874206f7420,%rax
  4024f5:	68 65 20 
  4024f8:	48 89 43 18          	mov    %rax,0x18(%rbx)
  4024fc:	c7 43 20 73 65 72 76 	movl   $0x76726573,0x20(%rbx)
  402503:	66 c7 43 24 65 72    	movw   $0x7265,0x24(%rbx)
  402509:	c6 43 26 00          	movb   $0x0,0x26(%rbx)
  40250d:	89 ef                	mov    %ebp,%edi
  40250f:	e8 7c e7 ff ff       	callq  400c90 <close@plt>
  402514:	b8 ff ff ff ff       	mov    $0xffffffff,%eax
  402519:	e9 58 02 00 00       	jmpq   402776 <submitr+0x587>
  40251e:	48 b8 45 72 72 6f 72 	movabs $0x52203a726f727245,%rax
  402525:	3a 20 52 
  402528:	48 89 03             	mov    %rax,(%rbx)
  40252b:	48 b8 65 73 75 6c 74 	movabs $0x747320746c757365,%rax
  402532:	20 73 74 
  402535:	48 89 43 08          	mov    %rax,0x8(%rbx)
  402539:	48 b8 72 69 6e 67 20 	movabs $0x6f6f7420676e6972,%rax
  402540:	74 6f 6f 
  402543:	48 89 43 10          	mov    %rax,0x10(%rbx)
  402547:	48 b8 20 6c 61 72 67 	movabs $0x202e656772616c20,%rax
  40254e:	65 2e 20 
  402551:	48 89 43 18          	mov    %rax,0x18(%rbx)
  402555:	48 b8 49 6e 63 72 65 	movabs $0x6573616572636e49,%rax
  40255c:	61 73 65 
  40255f:	48 89 43 20          	mov    %rax,0x20(%rbx)
  402563:	48 b8 20 53 55 42 4d 	movabs $0x5254494d42555320,%rax
  40256a:	49 54 52 
  40256d:	48 89 43 28          	mov    %rax,0x28(%rbx)
  402571:	48 b8 5f 4d 41 58 42 	movabs $0x46554258414d5f,%rax
  402578:	55 46 00 
  40257b:	48 89 43 30          	mov    %rax,0x30(%rbx)
  40257f:	89 ef                	mov    %ebp,%edi
  402581:	e8 0a e7 ff ff       	callq  400c90 <close@plt>
  402586:	b8 ff ff ff ff       	mov    $0xffffffff,%eax
  40258b:	e9 e6 01 00 00       	jmpq   402776 <submitr+0x587>
  402590:	48 b8 45 72 72 6f 72 	movabs $0x52203a726f727245,%rax
  402597:	3a 20 52 
  40259a:	48 89 03             	mov    %rax,(%rbx)
  40259d:	48 b8 65 73 75 6c 74 	movabs $0x747320746c757365,%rax
  4025a4:	20 73 74 
  4025a7:	48 89 43 08          	mov    %rax,0x8(%rbx)
  4025ab:	48 b8 72 69 6e 67 20 	movabs $0x6e6f6320676e6972,%rax
  4025b2:	63 6f 6e 
  4025b5:	48 89 43 10          	mov    %rax,0x10(%rbx)
  4025b9:	48 b8 74 61 69 6e 73 	movabs $0x6e6120736e696174,%rax
  4025c0:	20 61 6e 
  4025c3:	48 89 43 18          	mov    %rax,0x18(%rbx)
  4025c7:	48 b8 20 69 6c 6c 65 	movabs $0x6c6167656c6c6920,%rax
  4025ce:	67 61 6c 
  4025d1:	48 89 43 20          	mov    %rax,0x20(%rbx)
  4025d5:	48 b8 20 6f 72 20 75 	movabs $0x72706e7520726f20,%rax
  4025dc:	6e 70 72 
  4025df:	48 89 43 28          	mov    %rax,0x28(%rbx)
  4025e3:	48 b8 69 6e 74 61 62 	movabs $0x20656c6261746e69,%rax
  4025ea:	6c 65 20 
  4025ed:	48 89 43 30          	mov    %rax,0x30(%rbx)
  4025f1:	48 b8 63 68 61 72 61 	movabs $0x6574636172616863,%rax
  4025f8:	63 74 65 
  4025fb:	48 89 43 38          	mov    %rax,0x38(%rbx)
  4025ff:	66 c7 43 40 72 2e    	movw   $0x2e72,0x40(%rbx)
  402605:	c6 43 42 00          	movb   $0x0,0x42(%rbx)
  402609:	89 ef                	mov    %ebp,%edi
  40260b:	e8 80 e6 ff ff       	callq  400c90 <close@plt>
  402610:	b8 ff ff ff ff       	mov    $0xffffffff,%eax
  402615:	e9 5c 01 00 00       	jmpq   402776 <submitr+0x587>
  40261a:	48 b8 45 72 72 6f 72 	movabs $0x43203a726f727245,%rax
  402621:	3a 20 43 
  402624:	48 89 03             	mov    %rax,(%rbx)
  402627:	48 b8 6c 69 65 6e 74 	movabs $0x6e7520746e65696c,%rax
  40262e:	20 75 6e 
  402631:	48 89 43 08          	mov    %rax,0x8(%rbx)
  402635:	48 b8 61 62 6c 65 20 	movabs $0x206f7420656c6261,%rax
  40263c:	74 6f 20 
  40263f:	48 89 43 10          	mov    %rax,0x10(%rbx)
  402643:	48 b8 77 72 69 74 65 	movabs $0x6f74206574697277,%rax
  40264a:	20 74 6f 
  40264d:	48 89 43 18          	mov    %rax,0x18(%rbx)
  402651:	48 b8 20 74 68 65 20 	movabs $0x7365722065687420,%rax
  402658:	72 65 73 
  40265b:	48 89 43 20          	mov    %rax,0x20(%rbx)
  40265f:	48 b8 75 6c 74 20 73 	movabs $0x7672657320746c75,%rax
  402666:	65 72 76 
  402669:	48 89 43 28          	mov    %rax,0x28(%rbx)
  40266d:	66 c7 43 30 65 72    	movw   $0x7265,0x30(%rbx)
  402673:	c6 43 32 00          	movb   $0x0,0x32(%rbx)
  402677:	89 ef                	mov    %ebp,%edi
  402679:	e8 12 e6 ff ff       	callq  400c90 <close@plt>
  40267e:	b8 ff ff ff ff       	mov    $0xffffffff,%eax
  402683:	e9 ee 00 00 00       	jmpq   402776 <submitr+0x587>
  402688:	48 b8 45 72 72 6f 72 	movabs $0x43203a726f727245,%rax
  40268f:	3a 20 43 
  402692:	48 89 03             	mov    %rax,(%rbx)
  402695:	48 b8 6c 69 65 6e 74 	movabs $0x6e7520746e65696c,%rax
  40269c:	20 75 6e 
  40269f:	48 89 43 08          	mov    %rax,0x8(%rbx)
  4026a3:	48 b8 61 62 6c 65 20 	movabs $0x206f7420656c6261,%rax
  4026aa:	74 6f 20 
  4026ad:	48 89 43 10          	mov    %rax,0x10(%rbx)
  4026b1:	48 b8 72 65 61 64 20 	movabs $0x7269662064616572,%rax
  4026b8:	66 69 72 
  4026bb:	48 89 43 18          	mov    %rax,0x18(%rbx)
  4026bf:	48 b8 73 74 20 68 65 	movabs $0x6564616568207473,%rax
  4026c6:	61 64 65 
  4026c9:	48 89 43 20          	mov    %rax,0x20(%rbx)
  4026cd:	48 b8 72 20 66 72 6f 	movabs $0x72206d6f72662072,%rax
  4026d4:	6d 20 72 
  4026d7:	48 89 43 28          	mov    %rax,0x28(%rbx)
  4026db:	48 b8 65 73 75 6c 74 	movabs $0x657320746c757365,%rax
  4026e2:	20 73 65 
  4026e5:	48 89 43 30          	mov    %rax,0x30(%rbx)
  4026e9:	c7 43 38 72 76 65 72 	movl   $0x72657672,0x38(%rbx)
  4026f0:	c6 43 3c 00          	movb   $0x0,0x3c(%rbx)
  4026f4:	89 ef                	mov    %ebp,%edi
  4026f6:	e8 95 e5 ff ff       	callq  400c90 <close@plt>
  4026fb:	b8 ff ff ff ff       	mov    $0xffffffff,%eax
  402700:	eb 74                	jmp    402776 <submitr+0x587>
  402702:	48 b8 45 72 72 6f 72 	movabs $0x43203a726f727245,%rax
  402709:	3a 20 43 
  40270c:	48 89 03             	mov    %rax,(%rbx)
  40270f:	48 b8 6c 69 65 6e 74 	movabs $0x6e7520746e65696c,%rax
  402716:	20 75 6e 
  402719:	48 89 43 08          	mov    %rax,0x8(%rbx)
  40271d:	48 b8 61 62 6c 65 20 	movabs $0x206f7420656c6261,%rax
  402724:	74 6f 20 
  402727:	48 89 43 10          	mov    %rax,0x10(%rbx)
  40272b:	48 b8 72 65 61 64 20 	movabs $0x6165682064616572,%rax
  402732:	68 65 61 
  402735:	48 89 43 18          	mov    %rax,0x18(%rbx)
  402739:	48 b8 64 65 72 73 20 	movabs $0x6f72662073726564,%rax
  402740:	66 72 6f 
  402743:	48 89 43 20          	mov    %rax,0x20(%rbx)
  402747:	48 b8 6d 20 74 68 65 	movabs $0x657220656874206d,%rax
  40274e:	20 72 65 
  402751:	48 89 43 28          	mov    %rax,0x28(%rbx)
  402755:	48 b8 73 75 6c 74 20 	movabs $0x72657320746c7573,%rax
  40275c:	73 65 72 
  40275f:	48 89 43 30          	mov    %rax,0x30(%rbx)
  402763:	c7 43 38 76 65 72 00 	movl   $0x726576,0x38(%rbx)
  40276a:	89 ef                	mov    %ebp,%edi
  40276c:	e8 1f e5 ff ff       	callq  400c90 <close@plt>
  402771:	b8 ff ff ff ff       	mov    $0xffffffff,%eax
  402776:	48 81 c4 58 a0 00 00 	add    $0xa058,%rsp
  40277d:	5b                   	pop    %rbx
  40277e:	5d                   	pop    %rbp
  40277f:	41 5c                	pop    %r12
  402781:	41 5d                	pop    %r13
  402783:	41 5e                	pop    %r14
  402785:	41 5f                	pop    %r15
  402787:	c3                   	retq   
  402788:	85 c0                	test   %eax,%eax
  40278a:	74 51                	je     4027dd <submitr+0x5ee>
  40278c:	48 8d b4 24 30 60 00 	lea    0x6030(%rsp),%rsi
  402793:	00 
  402794:	48 8d bc 24 30 80 00 	lea    0x8030(%rsp),%rdi
  40279b:	00 
  40279c:	ba 00 20 00 00       	mov    $0x2000,%edx
  4027a1:	e8 ca f9 ff ff       	callq  402170 <rio_readlineb>
  4027a6:	48 85 c0             	test   %rax,%rax
  4027a9:	0f 8e 53 ff ff ff    	jle    402702 <submitr+0x513>
  4027af:	0f b6 94 24 30 60 00 	movzbl 0x6030(%rsp),%edx
  4027b6:	00 
  4027b7:	b8 0d 00 00 00       	mov    $0xd,%eax
  4027bc:	29 d0                	sub    %edx,%eax
  4027be:	75 c8                	jne    402788 <submitr+0x599>
  4027c0:	0f b6 94 24 31 60 00 	movzbl 0x6031(%rsp),%edx
  4027c7:	00 
  4027c8:	b8 0a 00 00 00       	mov    $0xa,%eax
  4027cd:	29 d0                	sub    %edx,%eax
  4027cf:	75 b7                	jne    402788 <submitr+0x599>
  4027d1:	0f b6 84 24 32 60 00 	movzbl 0x6032(%rsp),%eax
  4027d8:	00 
  4027d9:	f7 d8                	neg    %eax
  4027db:	eb ab                	jmp    402788 <submitr+0x599>
  4027dd:	48 8d b4 24 30 60 00 	lea    0x6030(%rsp),%rsi
  4027e4:	00 
  4027e5:	48 8d bc 24 30 80 00 	lea    0x8030(%rsp),%rdi
  4027ec:	00 
  4027ed:	ba 00 20 00 00       	mov    $0x2000,%edx
  4027f2:	e8 79 f9 ff ff       	callq  402170 <rio_readlineb>
  4027f7:	48 85 c0             	test   %rax,%rax
  4027fa:	7e 67                	jle    402863 <submitr+0x674>
  4027fc:	8b 94 24 2c 20 00 00 	mov    0x202c(%rsp),%edx
  402803:	81 fa c8 00 00 00    	cmp    $0xc8,%edx
  402809:	0f 85 d7 00 00 00    	jne    4028e6 <submitr+0x6f7>
  40280f:	48 8d b4 24 30 60 00 	lea    0x6030(%rsp),%rsi
  402816:	00 
  402817:	48 89 df             	mov    %rbx,%rdi
  40281a:	e8 01 e4 ff ff       	callq  400c20 <strcpy@plt>
  40281f:	89 ef                	mov    %ebp,%edi
  402821:	e8 6a e4 ff ff       	callq  400c90 <close@plt>
  402826:	0f b6 03             	movzbl (%rbx),%eax
  402829:	ba 4f 00 00 00       	mov    $0x4f,%edx
  40282e:	29 c2                	sub    %eax,%edx
  402830:	0f 85 da 00 00 00    	jne    402910 <submitr+0x721>
  402836:	0f b6 4b 01          	movzbl 0x1(%rbx),%ecx
  40283a:	b8 4b 00 00 00       	mov    $0x4b,%eax
  40283f:	29 c8                	sub    %ecx,%eax
  402841:	0f 85 cb 00 00 00    	jne    402912 <submitr+0x723>
  402847:	0f b6 4b 02          	movzbl 0x2(%rbx),%ecx
  40284b:	b8 0a 00 00 00       	mov    $0xa,%eax
  402850:	29 c8                	sub    %ecx,%eax
  402852:	0f 85 ba 00 00 00    	jne    402912 <submitr+0x723>
  402858:	0f b6 43 03          	movzbl 0x3(%rbx),%eax
  40285c:	f7 d8                	neg    %eax
  40285e:	e9 af 00 00 00       	jmpq   402912 <submitr+0x723>
  402863:	48 b8 45 72 72 6f 72 	movabs $0x43203a726f727245,%rax
  40286a:	3a 20 43 
  40286d:	48 89 03             	mov    %rax,(%rbx)
  402870:	48 b8 6c 69 65 6e 74 	movabs $0x6e7520746e65696c,%rax
  402877:	20 75 6e 
  40287a:	48 89 43 08          	mov    %rax,0x8(%rbx)
  40287e:	48 b8 61 62 6c 65 20 	movabs $0x206f7420656c6261,%rax
  402885:	74 6f 20 
  402888:	48 89 43 10          	mov    %rax,0x10(%rbx)
  40288c:	48 b8 72 65 61 64 20 	movabs $0x6174732064616572,%rax
  402893:	73 74 61 
  402896:	48 89 43 18          	mov    %rax,0x18(%rbx)
  40289a:	48 b8 74 75 73 20 6d 	movabs $0x7373656d20737574,%rax
  4028a1:	65 73 73 
  4028a4:	48 89 43 20          	mov    %rax,0x20(%rbx)
  4028a8:	48 b8 61 67 65 20 66 	movabs $0x6d6f726620656761,%rax
  4028af:	72 6f 6d 
  4028b2:	48 89 43 28          	mov    %rax,0x28(%rbx)
  4028b6:	48 b8 20 72 65 73 75 	movabs $0x20746c7573657220,%rax
  4028bd:	6c 74 20 
  4028c0:	48 89 43 30          	mov    %rax,0x30(%rbx)
  4028c4:	c7 43 38 73 65 72 76 	movl   $0x76726573,0x38(%rbx)
  4028cb:	66 c7 43 3c 65 72    	movw   $0x7265,0x3c(%rbx)
  4028d1:	c6 43 3e 00          	movb   $0x0,0x3e(%rbx)
  4028d5:	89 ef                	mov    %ebp,%edi
  4028d7:	e8 b4 e3 ff ff       	callq  400c90 <close@plt>
  4028dc:	b8 ff ff ff ff       	mov    $0xffffffff,%eax
  4028e1:	e9 90 fe ff ff       	jmpq   402776 <submitr+0x587>
  4028e6:	48 8d 4c 24 20       	lea    0x20(%rsp),%rcx
  4028eb:	48 8d 35 c6 0a 00 00 	lea    0xac6(%rip),%rsi        # 4033b8 <trans_char+0x78>
  4028f2:	48 89 df             	mov    %rbx,%rdi
  4028f5:	b8 00 00 00 00       	mov    $0x0,%eax
  4028fa:	e8 a1 e4 ff ff       	callq  400da0 <sprintf@plt>
  4028ff:	89 ef                	mov    %ebp,%edi
  402901:	e8 8a e3 ff ff       	callq  400c90 <close@plt>
  402906:	b8 ff ff ff ff       	mov    $0xffffffff,%eax
  40290b:	e9 66 fe ff ff       	jmpq   402776 <submitr+0x587>
  402910:	89 d0                	mov    %edx,%eax
  402912:	f7 d8                	neg    %eax
  402914:	0f 84 5c fe ff ff    	je     402776 <submitr+0x587>
  40291a:	b9 05 00 00 00       	mov    $0x5,%ecx
  40291f:	48 8d 3d da 0a 00 00 	lea    0xada(%rip),%rdi        # 403400 <trans_char+0xc0>
  402926:	48 89 de             	mov    %rbx,%rsi
  402929:	f3 a6                	repz cmpsb %es:(%rdi),%ds:(%rsi)
  40292b:	0f 97 c0             	seta   %al
  40292e:	0f 92 c1             	setb   %cl
  402931:	29 c8                	sub    %ecx,%eax
  402933:	0f be c0             	movsbl %al,%eax
  402936:	85 c0                	test   %eax,%eax
  402938:	0f 84 38 fe ff ff    	je     402776 <submitr+0x587>
  40293e:	85 d2                	test   %edx,%edx
  402940:	75 13                	jne    402955 <submitr+0x766>
  402942:	0f b6 43 01          	movzbl 0x1(%rbx),%eax
  402946:	ba 4b 00 00 00       	mov    $0x4b,%edx
  40294b:	29 c2                	sub    %eax,%edx
  40294d:	75 06                	jne    402955 <submitr+0x766>
  40294f:	0f b6 53 02          	movzbl 0x2(%rbx),%edx
  402953:	f7 da                	neg    %edx
  402955:	89 d0                	mov    %edx,%eax
  402957:	f7 d8                	neg    %eax
  402959:	0f 84 17 fe ff ff    	je     402776 <submitr+0x587>
  40295f:	b8 ff ff ff ff       	mov    $0xffffffff,%eax
  402964:	e9 0d fe ff ff       	jmpq   402776 <submitr+0x587>

0000000000402969 <init_timeout>:
  402969:	85 ff                	test   %edi,%edi
  40296b:	74 20                	je     40298d <init_timeout+0x24>
  40296d:	53                   	push   %rbx
  40296e:	89 fb                	mov    %edi,%ebx
  402970:	85 ff                	test   %edi,%edi
  402972:	78 1b                	js     40298f <init_timeout+0x26>
  402974:	48 8d 35 05 f6 ff ff 	lea    -0x9fb(%rip),%rsi        # 401f80 <sigalrm_handler>
  40297b:	bf 0e 00 00 00       	mov    $0xe,%edi
  402980:	e8 2b e3 ff ff       	callq  400cb0 <signal@plt>
  402985:	89 df                	mov    %ebx,%edi
  402987:	e8 f4 e2 ff ff       	callq  400c80 <alarm@plt>
  40298c:	5b                   	pop    %rbx
  40298d:	f3 c3                	repz retq 
  40298f:	bb 00 00 00 00       	mov    $0x0,%ebx
  402994:	eb de                	jmp    402974 <init_timeout+0xb>

0000000000402996 <init_driver>:
  402996:	41 54                	push   %r12
  402998:	55                   	push   %rbp
  402999:	53                   	push   %rbx
  40299a:	48 83 ec 10          	sub    $0x10,%rsp
  40299e:	48 89 fd             	mov    %rdi,%rbp
  4029a1:	be 01 00 00 00       	mov    $0x1,%esi
  4029a6:	bf 0d 00 00 00       	mov    $0xd,%edi
  4029ab:	e8 00 e3 ff ff       	callq  400cb0 <signal@plt>
  4029b0:	be 01 00 00 00       	mov    $0x1,%esi
  4029b5:	bf 1d 00 00 00       	mov    $0x1d,%edi
  4029ba:	e8 f1 e2 ff ff       	callq  400cb0 <signal@plt>
  4029bf:	be 01 00 00 00       	mov    $0x1,%esi
  4029c4:	bf 1d 00 00 00       	mov    $0x1d,%edi
  4029c9:	e8 e2 e2 ff ff       	callq  400cb0 <signal@plt>
  4029ce:	ba 00 00 00 00       	mov    $0x0,%edx
  4029d3:	be 01 00 00 00       	mov    $0x1,%esi
  4029d8:	bf 02 00 00 00       	mov    $0x2,%edi
  4029dd:	e8 ee e3 ff ff       	callq  400dd0 <socket@plt>
  4029e2:	85 c0                	test   %eax,%eax
  4029e4:	0f 88 80 00 00 00    	js     402a6a <init_driver+0xd4>
  4029ea:	89 c3                	mov    %eax,%ebx
  4029ec:	48 8d 3d 4b 05 00 00 	lea    0x54b(%rip),%rdi        # 402f3e <_IO_stdin_used+0x28e>
  4029f3:	e8 c8 e2 ff ff       	callq  400cc0 <gethostbyname@plt>
  4029f8:	48 85 c0             	test   %rax,%rax
  4029fb:	0f 84 b5 00 00 00    	je     402ab6 <init_driver+0x120>
  402a01:	48 c7 04 24 00 00 00 	movq   $0x0,(%rsp)
  402a08:	00 
  402a09:	48 c7 44 24 08 00 00 	movq   $0x0,0x8(%rsp)
  402a10:	00 00 
  402a12:	66 c7 04 24 02 00    	movw   $0x2,(%rsp)
  402a18:	48 8b 48 18          	mov    0x18(%rax),%rcx
  402a1c:	48 63 50 14          	movslq 0x14(%rax),%rdx
  402a20:	48 8d 74 24 04       	lea    0x4(%rsp),%rsi
  402a25:	48 8b 39             	mov    (%rcx),%rdi
  402a28:	e8 23 e3 ff ff       	callq  400d50 <bcopy@plt>
  402a2d:	66 c7 44 24 02 3c 9a 	movw   $0x9a3c,0x2(%rsp)
  402a34:	ba 10 00 00 00       	mov    $0x10,%edx
  402a39:	48 89 e6             	mov    %rsp,%rsi
  402a3c:	89 df                	mov    %ebx,%edi
  402a3e:	e8 7d e3 ff ff       	callq  400dc0 <connect@plt>
  402a43:	85 c0                	test   %eax,%eax
  402a45:	0f 88 d3 00 00 00    	js     402b1e <init_driver+0x188>
  402a4b:	89 df                	mov    %ebx,%edi
  402a4d:	e8 3e e2 ff ff       	callq  400c90 <close@plt>
  402a52:	66 c7 45 00 4f 4b    	movw   $0x4b4f,0x0(%rbp)
  402a58:	c6 45 02 00          	movb   $0x0,0x2(%rbp)
  402a5c:	b8 00 00 00 00       	mov    $0x0,%eax
  402a61:	48 83 c4 10          	add    $0x10,%rsp
  402a65:	5b                   	pop    %rbx
  402a66:	5d                   	pop    %rbp
  402a67:	41 5c                	pop    %r12
  402a69:	c3                   	retq   
  402a6a:	48 b8 45 72 72 6f 72 	movabs $0x43203a726f727245,%rax
  402a71:	3a 20 43 
  402a74:	48 89 45 00          	mov    %rax,0x0(%rbp)
  402a78:	48 b8 6c 69 65 6e 74 	movabs $0x6e7520746e65696c,%rax
  402a7f:	20 75 6e 
  402a82:	48 89 45 08          	mov    %rax,0x8(%rbp)
  402a86:	48 b8 61 62 6c 65 20 	movabs $0x206f7420656c6261,%rax
  402a8d:	74 6f 20 
  402a90:	48 89 45 10          	mov    %rax,0x10(%rbp)
  402a94:	48 b8 63 72 65 61 74 	movabs $0x7320657461657263,%rax
  402a9b:	65 20 73 
  402a9e:	48 89 45 18          	mov    %rax,0x18(%rbp)
  402aa2:	c7 45 20 6f 63 6b 65 	movl   $0x656b636f,0x20(%rbp)
  402aa9:	66 c7 45 24 74 00    	movw   $0x74,0x24(%rbp)
  402aaf:	b8 ff ff ff ff       	mov    $0xffffffff,%eax
  402ab4:	eb ab                	jmp    402a61 <init_driver+0xcb>
  402ab6:	48 b8 45 72 72 6f 72 	movabs $0x44203a726f727245,%rax
  402abd:	3a 20 44 
  402ac0:	48 89 45 00          	mov    %rax,0x0(%rbp)
  402ac4:	48 b8 4e 53 20 69 73 	movabs $0x6e7520736920534e,%rax
  402acb:	20 75 6e 
  402ace:	48 89 45 08          	mov    %rax,0x8(%rbp)
  402ad2:	48 b8 61 62 6c 65 20 	movabs $0x206f7420656c6261,%rax
  402ad9:	74 6f 20 
  402adc:	48 89 45 10          	mov    %rax,0x10(%rbp)
  402ae0:	48 b8 72 65 73 6f 6c 	movabs $0x2065766c6f736572,%rax
  402ae7:	76 65 20 
  402aea:	48 89 45 18          	mov    %rax,0x18(%rbp)
  402aee:	48 b8 73 65 72 76 65 	movabs $0x6120726576726573,%rax
  402af5:	72 20 61 
  402af8:	48 89 45 20          	mov    %rax,0x20(%rbp)
  402afc:	c7 45 28 64 64 72 65 	movl   $0x65726464,0x28(%rbp)
  402b03:	66 c7 45 2c 73 73    	movw   $0x7373,0x2c(%rbp)
  402b09:	c6 45 2e 00          	movb   $0x0,0x2e(%rbp)
  402b0d:	89 df                	mov    %ebx,%edi
  402b0f:	e8 7c e1 ff ff       	callq  400c90 <close@plt>
  402b14:	b8 ff ff ff ff       	mov    $0xffffffff,%eax
  402b19:	e9 43 ff ff ff       	jmpq   402a61 <init_driver+0xcb>
  402b1e:	48 b8 45 72 72 6f 72 	movabs $0x55203a726f727245,%rax
  402b25:	3a 20 55 
  402b28:	48 89 45 00          	mov    %rax,0x0(%rbp)
  402b2c:	48 b8 6e 61 62 6c 65 	movabs $0x6f7420656c62616e,%rax
  402b33:	20 74 6f 
  402b36:	48 89 45 08          	mov    %rax,0x8(%rbp)
  402b3a:	48 b8 20 63 6f 6e 6e 	movabs $0x7463656e6e6f6320,%rax
  402b41:	65 63 74 
  402b44:	48 89 45 10          	mov    %rax,0x10(%rbp)
  402b48:	48 b8 20 74 6f 20 73 	movabs $0x76726573206f7420,%rax
  402b4f:	65 72 76 
  402b52:	48 89 45 18          	mov    %rax,0x18(%rbp)
  402b56:	66 c7 45 20 65 72    	movw   $0x7265,0x20(%rbp)
  402b5c:	c6 45 22 00          	movb   $0x0,0x22(%rbp)
  402b60:	89 df                	mov    %ebx,%edi
  402b62:	e8 29 e1 ff ff       	callq  400c90 <close@plt>
  402b67:	b8 ff ff ff ff       	mov    $0xffffffff,%eax
  402b6c:	e9 f0 fe ff ff       	jmpq   402a61 <init_driver+0xcb>

0000000000402b71 <driver_post>:
  402b71:	53                   	push   %rbx
  402b72:	4c 89 cb             	mov    %r9,%rbx
  402b75:	45 85 c0             	test   %r8d,%r8d
  402b78:	75 18                	jne    402b92 <driver_post+0x21>
  402b7a:	48 85 ff             	test   %rdi,%rdi
  402b7d:	74 05                	je     402b84 <driver_post+0x13>
  402b7f:	80 3f 00             	cmpb   $0x0,(%rdi)
  402b82:	75 32                	jne    402bb6 <driver_post+0x45>
  402b84:	66 c7 03 4f 4b       	movw   $0x4b4f,(%rbx)
  402b89:	c6 43 02 00          	movb   $0x0,0x2(%rbx)
  402b8d:	44 89 c0             	mov    %r8d,%eax
  402b90:	5b                   	pop    %rbx
  402b91:	c3                   	retq   
  402b92:	48 89 ce             	mov    %rcx,%rsi
  402b95:	48 8d 3d 69 08 00 00 	lea    0x869(%rip),%rdi        # 403405 <trans_char+0xc5>
  402b9c:	b8 00 00 00 00       	mov    $0x0,%eax
  402ba1:	e8 ba e0 ff ff       	callq  400c60 <printf@plt>
  402ba6:	66 c7 03 4f 4b       	movw   $0x4b4f,(%rbx)
  402bab:	c6 43 02 00          	movb   $0x0,0x2(%rbx)
  402baf:	b8 00 00 00 00       	mov    $0x0,%eax
  402bb4:	eb da                	jmp    402b90 <driver_post+0x1f>
  402bb6:	48 83 ec 08          	sub    $0x8,%rsp
  402bba:	41 51                	push   %r9
  402bbc:	49 89 c9             	mov    %rcx,%r9
  402bbf:	49 89 d0             	mov    %rdx,%r8
  402bc2:	48 89 f9             	mov    %rdi,%rcx
  402bc5:	48 89 f2             	mov    %rsi,%rdx
  402bc8:	be 9a 3c 00 00       	mov    $0x3c9a,%esi
  402bcd:	48 8d 3d 6a 03 00 00 	lea    0x36a(%rip),%rdi        # 402f3e <_IO_stdin_used+0x28e>
  402bd4:	e8 16 f6 ff ff       	callq  4021ef <submitr>
  402bd9:	48 83 c4 10          	add    $0x10,%rsp
  402bdd:	eb b1                	jmp    402b90 <driver_post+0x1f>

0000000000402bdf <check>:
  402bdf:	89 f8                	mov    %edi,%eax
  402be1:	c1 e8 1c             	shr    $0x1c,%eax
  402be4:	85 c0                	test   %eax,%eax
  402be6:	74 1d                	je     402c05 <check+0x26>
  402be8:	b9 00 00 00 00       	mov    $0x0,%ecx
  402bed:	83 f9 1f             	cmp    $0x1f,%ecx
  402bf0:	7f 0d                	jg     402bff <check+0x20>
  402bf2:	89 f8                	mov    %edi,%eax
  402bf4:	d3 e8                	shr    %cl,%eax
  402bf6:	3c 0a                	cmp    $0xa,%al
  402bf8:	74 11                	je     402c0b <check+0x2c>
  402bfa:	83 c1 08             	add    $0x8,%ecx
  402bfd:	eb ee                	jmp    402bed <check+0xe>
  402bff:	b8 01 00 00 00       	mov    $0x1,%eax
  402c04:	c3                   	retq   
  402c05:	b8 00 00 00 00       	mov    $0x0,%eax
  402c0a:	c3                   	retq   
  402c0b:	b8 00 00 00 00       	mov    $0x0,%eax
  402c10:	c3                   	retq   

0000000000402c11 <gencookie>:
  402c11:	53                   	push   %rbx
  402c12:	83 c7 01             	add    $0x1,%edi
  402c15:	e8 e6 df ff ff       	callq  400c00 <srandom@plt>
  402c1a:	e8 f1 e0 ff ff       	callq  400d10 <random@plt>
  402c1f:	89 c3                	mov    %eax,%ebx
  402c21:	89 c7                	mov    %eax,%edi
  402c23:	e8 b7 ff ff ff       	callq  402bdf <check>
  402c28:	85 c0                	test   %eax,%eax
  402c2a:	74 ee                	je     402c1a <gencookie+0x9>
  402c2c:	89 d8                	mov    %ebx,%eax
  402c2e:	5b                   	pop    %rbx
  402c2f:	c3                   	retq   

0000000000402c30 <__libc_csu_init>:
  402c30:	41 57                	push   %r15
  402c32:	41 56                	push   %r14
  402c34:	41 89 ff             	mov    %edi,%r15d
  402c37:	41 55                	push   %r13
  402c39:	41 54                	push   %r12
  402c3b:	4c 8d 25 c6 11 20 00 	lea    0x2011c6(%rip),%r12        # 603e08 <__frame_dummy_init_array_entry>
  402c42:	55                   	push   %rbp
  402c43:	48 8d 2d c6 11 20 00 	lea    0x2011c6(%rip),%rbp        # 603e10 <__init_array_end>
  402c4a:	53                   	push   %rbx
  402c4b:	49 89 f6             	mov    %rsi,%r14
  402c4e:	49 89 d5             	mov    %rdx,%r13
  402c51:	4c 29 e5             	sub    %r12,%rbp
  402c54:	48 83 ec 08          	sub    $0x8,%rsp
  402c58:	48 c1 fd 03          	sar    $0x3,%rbp
  402c5c:	e8 4f df ff ff       	callq  400bb0 <_init>
  402c61:	48 85 ed             	test   %rbp,%rbp
  402c64:	74 20                	je     402c86 <__libc_csu_init+0x56>
  402c66:	31 db                	xor    %ebx,%ebx
  402c68:	0f 1f 84 00 00 00 00 	nopl   0x0(%rax,%rax,1)
  402c6f:	00 
  402c70:	4c 89 ea             	mov    %r13,%rdx
  402c73:	4c 89 f6             	mov    %r14,%rsi
  402c76:	44 89 ff             	mov    %r15d,%edi
  402c79:	41 ff 14 dc          	callq  *(%r12,%rbx,8)
  402c7d:	48 83 c3 01          	add    $0x1,%rbx
  402c81:	48 39 dd             	cmp    %rbx,%rbp
  402c84:	75 ea                	jne    402c70 <__libc_csu_init+0x40>
  402c86:	48 83 c4 08          	add    $0x8,%rsp
  402c8a:	5b                   	pop    %rbx
  402c8b:	5d                   	pop    %rbp
  402c8c:	41 5c                	pop    %r12
  402c8e:	41 5d                	pop    %r13
  402c90:	41 5e                	pop    %r14
  402c92:	41 5f                	pop    %r15
  402c94:	c3                   	retq   
  402c95:	90                   	nop
  402c96:	66 2e 0f 1f 84 00 00 	nopw   %cs:0x0(%rax,%rax,1)
  402c9d:	00 00 00 

0000000000402ca0 <__libc_csu_fini>:
  402ca0:	f3 c3                	repz retq 

Disassembly of section .fini:

0000000000402ca4 <_fini>:
  402ca4:	48 83 ec 08          	sub    $0x8,%rsp
  402ca8:	48 83 c4 08          	add    $0x8,%rsp
  402cac:	c3                   	retq   
